	.file	"thttpd.c"
	.text
.Ltext0:
	.section	.rodata.str1.8,"aMS",@progbits,1
	.align 8
.LC0:
	.string	"throttle #%d '%.80s' rate %ld greatly exceeding limit %ld; %d sending"
	.align 8
.LC1:
	.string	"throttle #%d '%.80s' rate %ld exceeding limit %ld; %d sending"
	.align 8
.LC2:
	.string	"throttle #%d '%.80s' rate %ld lower than minimum %ld; %d sending"
	.text
	.p2align 4,,15
	.type	update_throttles, @function
update_throttles:
.LFB63:
	.file 1 "thttpd.c"
	.loc 1 1933 0
	.cfi_startproc
.LVL0:
	pushq	%r12
	.cfi_def_cfa_offset 16
	.cfi_offset 12, -16
	pushq	%rbp
	.cfi_def_cfa_offset 24
	.cfi_offset 6, -24
	pushq	%rbx
	.cfi_def_cfa_offset 32
	.cfi_offset 3, -32
	subq	$16, %rsp
	.cfi_def_cfa_offset 48
	.loc 1 1942 0
	movl	numthrottles(%rip), %edx
	testl	%edx, %edx
	jle	.L2
	xorl	%ebp, %ebp
	xorl	%ebx, %ebx
	.loc 1 1944 0
	movabsq	$6148914691236517206, %r12
	jmp	.L6
.LVL1:
	.p2align 4,,10
	.p2align 3
.L5:
	.loc 1 1942 0
	addl	$1, %ebx
.LVL2:
	addq	$48, %rbp
	cmpl	%ebx, numthrottles(%rip)
	jle	.L2
.LVL3:
.L6:
	.loc 1 1944 0
	movq	%rbp, %rcx
	addq	throttles(%rip), %rcx
	movq	32(%rcx), %rax
	.loc 1 1947 0
	movq	8(%rcx), %r9
	.loc 1 1945 0
	movq	$0, 32(%rcx)
	.loc 1 1944 0
	movq	%rax, %rdx
	shrq	$63, %rdx
	leaq	(%rdx,%rax), %rax
	movq	24(%rcx), %rdx
	sarq	%rax
	leaq	(%rax,%rdx,2), %rsi
	movq	%rsi, %rax
	sarq	$63, %rsi
	imulq	%r12
	subq	%rsi, %rdx
	.loc 1 1947 0
	cmpq	%r9, %rdx
	.loc 1 1944 0
	movq	%rdx, 24(%rcx)
	.loc 1 1947 0
	jle	.L3
	movl	40(%rcx), %eax
	testl	%eax, %eax
	je	.L3
	.loc 1 1949 0
	leaq	(%r9,%r9), %rsi
	cmpq	%rsi, %rdx
	jle	.L4
	.loc 1 1950 0
	movl	%eax, (%rsp)
	movq	(%rcx), %rcx
	movq	%rdx, %r8
	movl	$.LC0, %esi
	movl	%ebx, %edx
	movl	$5, %edi
.LVL4:
.L16:
	.loc 1 1952 0
	xorl	%eax, %eax
	call	syslog
	movq	%rbp, %rcx
	addq	throttles(%rip), %rcx
	movq	24(%rcx), %rdx
.LVL5:
.L3:
	.loc 1 1954 0
	movq	16(%rcx), %r9
	cmpq	%r9, %rdx
	jge	.L5
	movl	40(%rcx), %eax
	testl	%eax, %eax
	je	.L5
	.loc 1 1956 0
	movl	%eax, (%rsp)
	movq	(%rcx), %rcx
	movq	%rdx, %r8
	xorl	%eax, %eax
	movl	%ebx, %edx
	movl	$.LC2, %esi
	movl	$5, %edi
.LVL6:
	.loc 1 1942 0
	addl	$1, %ebx
	addq	$48, %rbp
	.loc 1 1956 0
	call	syslog
.LVL7:
	.loc 1 1942 0
	cmpl	%ebx, numthrottles(%rip)
	jg	.L6
.LVL8:
	.p2align 4,,10
	.p2align 3
.L2:
	.loc 1 1963 0
	movl	max_connects(%rip), %r10d
	testl	%r10d, %r10d
	jle	.L13
	movq	throttles(%rip), %r9
	movq	connects(%rip), %rbx
	xorl	%ebp, %ebp
	jmp	.L12
.LVL9:
	.p2align 4,,10
	.p2align 3
.L8:
	addl	$1, %ebp
.LVL10:
	addq	$144, %rbx
	cmpl	%r10d, %ebp
	je	.L13
.LVL11:
.L12:
	.loc 1 1966 0
	movl	(%rbx), %eax
	subl	$2, %eax
	cmpl	$1, %eax
	ja	.L8
	.loc 1 1969 0
	movl	56(%rbx), %eax
	.loc 1 1968 0
	movq	$-1, 64(%rbx)
.LVL12:
	.loc 1 1969 0
	testl	%eax, %eax
	jle	.L8
	movl	56(%rbx), %r8d
	movq	%rbx, %rdi
.LVL13:
	movq	$-1, %rcx
	xorl	%esi, %esi
	jmp	.L11
.LVL14:
	.p2align 4,,10
	.p2align 3
.L9:
	.loc 1 1976 0
	cmpq	%rax, %rcx
	cmovg	%rax, %rcx
	movq	%rcx, 64(%rbx)
.L10:
	.loc 1 1969 0
	addl	$1, %esi
.LVL15:
	addq	$4, %rdi
.LVL16:
	cmpl	%esi, %r8d
	jle	.L8
	movq	64(%rbx), %rcx
.LVL17:
.L11:
	.loc 1 1972 0
	movslq	16(%rdi), %rax
	leaq	(%rax,%rax,2), %rax
	salq	$4, %rax
	leaq	(%r9,%rax), %rax
	movslq	40(%rax), %r11
	movq	8(%rax), %rdx
	movq	%rdx, %rax
	sarq	$63, %rdx
	idivq	%r11
.LVL18:
	.loc 1 1973 0
	cmpq	$-1, %rcx
	jne	.L9
	.loc 1 1974 0
	movq	%rax, 64(%rbx)
	jmp	.L10
.LVL19:
	.p2align 4,,10
	.p2align 3
.L4:
	.loc 1 1952 0
	movl	%eax, (%rsp)
	movq	%rdx, %r8
	movq	(%rcx), %rcx
	movl	%ebx, %edx
	movl	$.LC1, %esi
	movl	$6, %edi
.LVL20:
	jmp	.L16
.LVL21:
	.p2align 4,,10
	.p2align 3
.L13:
	.loc 1 1980 0
	addq	$16, %rsp
	.cfi_def_cfa_offset 32
	popq	%rbx
	.cfi_def_cfa_offset 24
	popq	%rbp
	.cfi_def_cfa_offset 16
	popq	%r12
	.cfi_def_cfa_offset 8
	ret
	.cfi_endproc
.LFE63:
	.size	update_throttles, .-update_throttles
	.section	.rodata.str1.8
	.align 8
.LC3:
	.string	"%s: no value required for %s option\n"
	.text
	.p2align 4,,15
	.type	no_value_required, @function
no_value_required:
.LFB52:
	.loc 1 1207 0
	.cfi_startproc
.LVL22:
	subq	$8, %rsp
	.cfi_def_cfa_offset 16
	.loc 1 1208 0
	testq	%rsi, %rsi
	jne	.L21
	.loc 1 1215 0
	addq	$8, %rsp
	.cfi_remember_state
	.cfi_def_cfa_offset 8
	ret
.L21:
	.cfi_restore_state
	.loc 1 1210 0
	movq	%rdi, %rcx
	movq	argv0(%rip), %rdx
	movq	stderr(%rip), %rdi
.LVL23:
	movl	$.LC3, %esi
.LVL24:
	xorl	%eax, %eax
	call	fprintf
.LVL25:
	.loc 1 1213 0
	movl	$1, %edi
	call	exit
	.cfi_endproc
.LFE52:
	.size	no_value_required, .-no_value_required
	.section	.rodata.str1.8
	.align 8
.LC4:
	.string	"%s: value required for %s option\n"
	.text
	.p2align 4,,15
	.type	value_required, @function
value_required:
.LFB51:
	.loc 1 1195 0
	.cfi_startproc
.LVL26:
	subq	$8, %rsp
	.cfi_def_cfa_offset 16
	.loc 1 1196 0
	testq	%rsi, %rsi
	je	.L25
	.loc 1 1202 0
	addq	$8, %rsp
	.cfi_remember_state
	.cfi_def_cfa_offset 8
	ret
.L25:
	.cfi_restore_state
	.loc 1 1198 0
	movq	%rdi, %rcx
	movq	argv0(%rip), %rdx
	movq	stderr(%rip), %rdi
.LVL27:
	movl	$.LC4, %esi
.LVL28:
	xorl	%eax, %eax
	call	fprintf
.LVL29:
	.loc 1 1200 0
	movl	$1, %edi
	call	exit
	.cfi_endproc
.LFE51:
	.size	value_required, .-value_required
	.section	.rodata.str1.8
	.align 8
.LC5:
	.string	"usage:  %s [-C configfile] [-p port] [-d dir] [-r|-nor] [-dd data_dir] [-s|-nos] [-v|-nov] [-g|-nog] [-u user] [-c cgipat] [-t throttles] [-h host] [-l logfile] [-i pidfile] [-T charset] [-P P3P] [-M maxage] [-V] [-D]\n"
	.text
	.p2align 4,,15
	.type	usage, @function
usage:
.LFB49:
	.loc 1 990 0
	.cfi_startproc
	subq	$8, %rsp
	.cfi_def_cfa_offset 16
	.loc 1 991 0
	movq	stderr(%rip), %rdi
	movq	argv0(%rip), %rdx
	movl	$.LC5, %esi
	xorl	%eax, %eax
	call	fprintf
	.loc 1 994 0
	movl	$1, %edi
	call	exit
	.cfi_endproc
.LFE49:
	.size	usage, .-usage
	.p2align 4,,15
	.type	wakeup_connection, @function
wakeup_connection:
.LFB68:
	.loc 1 2105 0
	.cfi_startproc
.LVL30:
	.loc 1 2110 0
	cmpl	$3, (%rdi)
	.loc 1 2109 0
	movq	$0, 96(%rdi)
	.loc 1 2110 0
	je	.L31
	rep
	ret
	.p2align 4,,10
	.p2align 3
.L31:
	.loc 1 2113 0
	movq	8(%rdi), %rax
	.loc 1 2112 0
	movl	$2, (%rdi)
	.loc 1 2113 0
	movq	%rdi, %rsi
.LVL31:
	movl	$1, %edx
	movl	704(%rax), %eax
	movl	%eax, %edi
.LVL32:
	jmp	fdwatch_add_fd
	.cfi_endproc
.LFE68:
	.size	wakeup_connection, .-wakeup_connection
	.p2align 4,,15
	.type	handle_hup, @function
handle_hup:
.LFB42:
	.loc 1 238 0
	.cfi_startproc
.LVL33:
	subq	$8, %rsp
	.cfi_def_cfa_offset 16
	.loc 1 239 0
	call	__errno_location
.LVL34:
	movl	(%rax), %edx
.LVL35:
	.loc 1 247 0
	movl	$1, got_hup(%rip)
	.loc 1 250 0
	movl	%edx, (%rax)
	.loc 1 251 0
	addq	$8, %rsp
	.cfi_def_cfa_offset 8
	ret
	.cfi_endproc
.LFE42:
	.size	handle_hup, .-handle_hup
	.section	.rodata.str1.8
	.align 8
.LC6:
	.string	"out of memory copying a string"
	.align 8
.LC7:
	.string	"%s: out of memory copying a string\n"
	.text
	.p2align 4,,15
	.type	e_strdup, @function
e_strdup:
.LFB53:
	.loc 1 1220 0
	.cfi_startproc
.LVL36:
	subq	$8, %rsp
	.cfi_def_cfa_offset 16
	.loc 1 1223 0
	call	__strdup
.LVL37:
	.loc 1 1224 0
	testq	%rax, %rax
	je	.L37
	.loc 1 1231 0
	addq	$8, %rsp
	.cfi_remember_state
	.cfi_def_cfa_offset 8
	ret
.L37:
	.cfi_restore_state
	.loc 1 1226 0
	movl	$.LC6, %esi
	movl	$2, %edi
	call	syslog
.LVL38:
	.loc 1 1227 0
	movq	stderr(%rip), %rdi
	movq	argv0(%rip), %rdx
	movl	$.LC7, %esi
	xorl	%eax, %eax
	call	fprintf
	.loc 1 1228 0
	movl	$1, %edi
	call	exit
	.cfi_endproc
.LFE53:
	.size	e_strdup, .-e_strdup
	.section	.rodata.str1.1,"aMS",@progbits,1
.LC8:
	.string	"r"
.LC9:
	.string	" \t\n\r"
.LC10:
	.string	"debug"
.LC11:
	.string	"port"
.LC12:
	.string	"dir"
.LC13:
	.string	"chroot"
.LC14:
	.string	"nochroot"
.LC15:
	.string	"data_dir"
.LC16:
	.string	"symlink"
.LC17:
	.string	"nosymlink"
.LC18:
	.string	"symlinks"
.LC19:
	.string	"nosymlinks"
.LC20:
	.string	"user"
.LC21:
	.string	"cgipat"
.LC22:
	.string	"cgilimit"
.LC23:
	.string	"urlpat"
.LC24:
	.string	"noemptyreferers"
.LC25:
	.string	"localpat"
.LC26:
	.string	"throttles"
.LC27:
	.string	"host"
.LC28:
	.string	"logfile"
.LC29:
	.string	"vhost"
.LC30:
	.string	"novhost"
.LC31:
	.string	"globalpasswd"
.LC32:
	.string	"noglobalpasswd"
.LC33:
	.string	"pidfile"
.LC34:
	.string	"charset"
.LC35:
	.string	"p3p"
.LC36:
	.string	"max_age"
	.section	.rodata.str1.8
	.align 8
.LC37:
	.string	"%s: unknown config option '%s'\n"
	.text
	.p2align 4,,15
	.type	read_config, @function
read_config:
.LFB50:
	.loc 1 1000 0
	.cfi_startproc
.LVL39:
	pushq	%r14
	.cfi_def_cfa_offset 16
	.cfi_offset 14, -16
	.loc 1 1008 0
	movl	$.LC8, %esi
	.loc 1 1000 0
	pushq	%r13
	.cfi_def_cfa_offset 24
	.cfi_offset 13, -24
	pushq	%r12
	.cfi_def_cfa_offset 32
	.cfi_offset 12, -32
	pushq	%rbp
	.cfi_def_cfa_offset 40
	.cfi_offset 6, -40
	pushq	%rbx
	.cfi_def_cfa_offset 48
	.cfi_offset 3, -48
	movq	%rdi, %rbx
	subq	$10016, %rsp
	.cfi_def_cfa_offset 10064
	.loc 1 1000 0
	movq	%fs:40, %rax
	movq	%rax, 10008(%rsp)
	xorl	%eax, %eax
	.loc 1 1008 0
	call	fopen
.LVL40:
	.loc 1 1009 0
	testq	%rax, %rax
	.loc 1 1008 0
	movq	%rax, %r12
.LVL41:
	.loc 1 1009 0
	je	.L82
	movq	%rsp, %rbp
.LVL42:
	.p2align 4,,10
	.p2align 3
.L81:
	.loc 1 1015 0
	movq	%r12, %rdx
	movl	$10000, %esi
	movq	%rsp, %rdi
	call	fgets
	testq	%rax, %rax
	je	.L85
	.loc 1 1018 0
	movl	$35, %esi
	movq	%rsp, %rdi
	call	strchr
.LVL43:
	testq	%rax, %rax
	je	.L40
	.loc 1 1019 0
	movb	$0, (%rax)
.L40:
.LVL44:
.LBB92:
	.loc 1 1023 0
	movl	$.LC9, %esi
	movq	%rsp, %rdi
	call	strspn
.LBE92:
	leaq	0(%rbp,%rax), %r14
.LVL45:
	.loc 1 1026 0
	cmpb	$0, (%r14)
	je	.L81
.L78:
.LVL46:
.LBB93:
	.loc 1 1029 0
	movl	$.LC9, %esi
	movq	%r14, %rdi
	call	strcspn
.LBE93:
	leaq	(%r14,%rax), %rbx
.LVL47:
	.loc 1 1031 0
	jmp	.L41
	.p2align 4,,10
	.p2align 3
.L42:
	.loc 1 1032 0
	movb	$0, (%rbx)
	addq	$1, %rbx
.LVL48:
.L41:
	.loc 1 1031 0
	movzbl	(%rbx), %eax
	cmpb	$9, %al
	je	.L42
	cmpb	$32, %al
	je	.L42
	cmpb	$10, %al
	je	.L42
	cmpb	$13, %al
	.p2align 4,,5
	je	.L42
.LVL49:
	.loc 1 1035 0
	movl	$61, %esi
	movq	%r14, %rdi
	call	strchr
	.loc 1 1036 0
	testq	%rax, %rax
	.loc 1 1035 0
	movq	%rax, %r13
.LVL50:
	.loc 1 1036 0
	je	.L43
	.loc 1 1037 0
	movb	$0, (%rax)
	addq	$1, %r13
.LVL51:
.L43:
	.loc 1 1039 0
	movl	$.LC10, %esi
	movq	%r14, %rdi
	call	strcasecmp
	testl	%eax, %eax
	je	.L86
	.loc 1 1044 0
	movl	$.LC11, %esi
	movq	%r14, %rdi
	call	strcasecmp
	testl	%eax, %eax
	je	.L87
	.loc 1 1049 0
	movl	$.LC12, %esi
	movq	%r14, %rdi
	call	strcasecmp
	testl	%eax, %eax
	je	.L88
	.loc 1 1054 0
	movl	$.LC13, %esi
	movq	%r14, %rdi
	call	strcasecmp
	testl	%eax, %eax
	je	.L89
	.loc 1 1060 0
	movl	$.LC14, %esi
	movq	%r14, %rdi
	call	strcasecmp
	testl	%eax, %eax
	je	.L90
	.loc 1 1066 0
	movl	$.LC15, %esi
	movq	%r14, %rdi
	call	strcasecmp
	testl	%eax, %eax
	je	.L91
	.loc 1 1071 0
	movl	$.LC16, %esi
	movq	%r14, %rdi
	call	strcasecmp
	testl	%eax, %eax
	je	.L83
	.loc 1 1076 0
	movl	$.LC17, %esi
	movq	%r14, %rdi
	call	strcasecmp
	testl	%eax, %eax
	je	.L84
	.loc 1 1081 0
	movl	$.LC18, %esi
	movq	%r14, %rdi
	call	strcasecmp
	testl	%eax, %eax
	je	.L83
	.loc 1 1086 0
	movl	$.LC19, %esi
	movq	%r14, %rdi
	call	strcasecmp
	testl	%eax, %eax
	je	.L84
	.loc 1 1091 0
	movl	$.LC20, %esi
	movq	%r14, %rdi
	call	strcasecmp
	testl	%eax, %eax
	je	.L92
	.loc 1 1096 0
	movl	$.LC21, %esi
	movq	%r14, %rdi
	call	strcasecmp
	testl	%eax, %eax
	je	.L93
	.loc 1 1101 0
	movl	$.LC22, %esi
	movq	%r14, %rdi
	call	strcasecmp
	testl	%eax, %eax
	je	.L94
	.loc 1 1106 0
	movl	$.LC23, %esi
	movq	%r14, %rdi
	call	strcasecmp
	testl	%eax, %eax
	je	.L95
	.loc 1 1111 0
	movl	$.LC24, %esi
	movq	%r14, %rdi
	call	strcasecmp
	testl	%eax, %eax
	je	.L96
	.loc 1 1116 0
	movl	$.LC25, %esi
	movq	%r14, %rdi
	call	strcasecmp
	testl	%eax, %eax
	je	.L97
	.loc 1 1121 0
	movl	$.LC26, %esi
	movq	%r14, %rdi
	call	strcasecmp
	testl	%eax, %eax
	je	.L98
	.loc 1 1126 0
	movl	$.LC27, %esi
	movq	%r14, %rdi
	call	strcasecmp
	testl	%eax, %eax
	je	.L99
	.loc 1 1131 0
	movl	$.LC28, %esi
	movq	%r14, %rdi
	call	strcasecmp
	testl	%eax, %eax
	je	.L100
	.loc 1 1136 0
	movl	$.LC29, %esi
	movq	%r14, %rdi
	call	strcasecmp
	testl	%eax, %eax
	je	.L101
	.loc 1 1141 0
	movl	$.LC30, %esi
	movq	%r14, %rdi
	call	strcasecmp
	testl	%eax, %eax
	je	.L102
	.loc 1 1146 0
	movl	$.LC31, %esi
	movq	%r14, %rdi
	call	strcasecmp
	testl	%eax, %eax
	je	.L103
	.loc 1 1151 0
	movl	$.LC32, %esi
	movq	%r14, %rdi
	call	strcasecmp
	testl	%eax, %eax
	je	.L104
	.loc 1 1156 0
	movl	$.LC33, %esi
	movq	%r14, %rdi
	call	strcasecmp
	testl	%eax, %eax
	je	.L105
	.loc 1 1161 0
	movl	$.LC34, %esi
	movq	%r14, %rdi
	call	strcasecmp
	testl	%eax, %eax
	je	.L106
	.loc 1 1166 0
	movl	$.LC35, %esi
	movq	%r14, %rdi
	call	strcasecmp
	testl	%eax, %eax
	je	.L107
	.loc 1 1171 0
	movl	$.LC36, %esi
	movq	%r14, %rdi
	call	strcasecmp
	testl	%eax, %eax
	jne	.L71
	.loc 1 1173 0
	movq	%r13, %rsi
	movq	%r14, %rdi
	call	value_required
.LVL52:
.LBB94:
.LBB95:
	.file 2 "/usr/include/stdlib.h"
	.loc 2 286 0
	movl	$10, %edx
	xorl	%esi, %esi
	movq	%r13, %rdi
	call	strtol
	.loc 1 1174 0
	movl	%eax, max_age(%rip)
	jmp	.L45
.LVL53:
	.p2align 4,,10
	.p2align 3
.L85:
.LBE95:
.LBE94:
	.loc 1 1189 0
	movq	%r12, %rdi
	call	fclose
	.loc 1 1190 0
	movq	10008(%rsp), %rax
	xorq	%fs:40, %rax
	jne	.L108
	addq	$10016, %rsp
	.cfi_remember_state
	.cfi_def_cfa_offset 48
	popq	%rbx
	.cfi_def_cfa_offset 40
	popq	%rbp
	.cfi_def_cfa_offset 32
	popq	%r12
	.cfi_def_cfa_offset 24
.LVL54:
	popq	%r13
	.cfi_def_cfa_offset 16
	popq	%r14
	.cfi_def_cfa_offset 8
	ret
.LVL55:
.L86:
	.cfi_restore_state
	.loc 1 1041 0
	movq	%r13, %rsi
	movq	%r14, %rdi
	call	no_value_required
	.loc 1 1042 0
	movl	$1, debug(%rip)
.L45:
.LVL56:
.LBB96:
	.loc 1 1185 0
	movl	$.LC9, %esi
	movq	%rbx, %rdi
	call	strspn
.LBE96:
	leaq	(%rbx,%rax), %r14
.LVL57:
	.loc 1 1026 0
	cmpb	$0, (%r14)
	je	.L81
	jmp	.L78
.LVL58:
.L87:
	.loc 1 1046 0
	movq	%r13, %rsi
	movq	%r14, %rdi
	call	value_required
.LVL59:
.LBB97:
.LBB98:
	.loc 2 286 0
	movl	$10, %edx
	xorl	%esi, %esi
	movq	%r13, %rdi
	call	strtol
.LBE98:
.LBE97:
	.loc 1 1047 0
	movw	%ax, port(%rip)
	jmp	.L45
.LVL60:
.L88:
	.loc 1 1051 0
	movq	%r13, %rsi
	movq	%r14, %rdi
	call	value_required
	.loc 1 1052 0
	movq	%r13, %rdi
	call	e_strdup
	movq	%rax, dir(%rip)
	jmp	.L45
.L83:
	.loc 1 1083 0
	movq	%r13, %rsi
	movq	%r14, %rdi
	call	no_value_required
	.loc 1 1084 0
	movl	$0, no_symlink_check(%rip)
	jmp	.L45
.L89:
	.loc 1 1056 0
	movq	%r13, %rsi
	movq	%r14, %rdi
	call	no_value_required
	.loc 1 1057 0
	movl	$1, do_chroot(%rip)
	.loc 1 1058 0
	movl	$1, no_symlink_check(%rip)
	jmp	.L45
.L90:
	.loc 1 1062 0
	movq	%r13, %rsi
	movq	%r14, %rdi
	call	no_value_required
	.loc 1 1063 0
	movl	$0, do_chroot(%rip)
	.loc 1 1064 0
	movl	$0, no_symlink_check(%rip)
	jmp	.L45
.L91:
	.loc 1 1068 0
	movq	%r13, %rsi
	movq	%r14, %rdi
	call	value_required
	.loc 1 1069 0
	movq	%r13, %rdi
	call	e_strdup
	movq	%rax, data_dir(%rip)
	jmp	.L45
.L84:
	.loc 1 1088 0
	movq	%r13, %rsi
	movq	%r14, %rdi
	call	no_value_required
	.loc 1 1089 0
	movl	$1, no_symlink_check(%rip)
	jmp	.L45
.L95:
	.loc 1 1108 0
	movq	%r13, %rsi
	movq	%r14, %rdi
	call	value_required
	.loc 1 1109 0
	movq	%r13, %rdi
	call	e_strdup
	movq	%rax, url_pattern(%rip)
	jmp	.L45
.L92:
	.loc 1 1093 0
	movq	%r13, %rsi
	movq	%r14, %rdi
	call	value_required
	.loc 1 1094 0
	movq	%r13, %rdi
	call	e_strdup
	movq	%rax, user(%rip)
	jmp	.L45
.L93:
	.loc 1 1098 0
	movq	%r13, %rsi
	movq	%r14, %rdi
	call	value_required
	.loc 1 1099 0
	movq	%r13, %rdi
	call	e_strdup
	movq	%rax, cgi_pattern(%rip)
	jmp	.L45
.L94:
	.loc 1 1103 0
	movq	%r13, %rsi
	movq	%r14, %rdi
	call	value_required
.LVL61:
.LBB99:
.LBB100:
	.loc 2 286 0
	movl	$10, %edx
	xorl	%esi, %esi
	movq	%r13, %rdi
	call	strtol
	.loc 1 1104 0
	movl	%eax, cgi_limit(%rip)
	jmp	.L45
.LVL62:
.L97:
.LBE100:
.LBE99:
	.loc 1 1118 0
	movq	%r13, %rsi
	movq	%r14, %rdi
	call	value_required
	.loc 1 1119 0
	movq	%r13, %rdi
	call	e_strdup
	movq	%rax, local_pattern(%rip)
	jmp	.L45
.L96:
	.loc 1 1113 0
	movq	%r13, %rsi
	movq	%r14, %rdi
	call	no_value_required
	.loc 1 1114 0
	movl	$1, no_empty_referers(%rip)
	jmp	.L45
.L71:
	.loc 1 1178 0
	movq	stderr(%rip), %rdi
	movq	argv0(%rip), %rdx
	movq	%r14, %rcx
	movl	$.LC37, %esi
	xorl	%eax, %eax
	call	fprintf
	.loc 1 1180 0
	movl	$1, %edi
	call	exit
.LVL63:
.L82:
	.loc 1 1011 0
	movq	%rbx, %rdi
	call	perror
	.loc 1 1012 0
	movl	$1, %edi
	call	exit
.LVL64:
.L108:
	.loc 1 1190 0
	call	__stack_chk_fail
.LVL65:
.L99:
	.loc 1 1128 0
	movq	%r13, %rsi
	movq	%r14, %rdi
	call	value_required
	.loc 1 1129 0
	movq	%r13, %rdi
	call	e_strdup
	movq	%rax, hostname(%rip)
	jmp	.L45
.L98:
	.loc 1 1123 0
	movq	%r13, %rsi
	movq	%r14, %rdi
	call	value_required
	.loc 1 1124 0
	movq	%r13, %rdi
	call	e_strdup
	movq	%rax, throttlefile(%rip)
	jmp	.L45
.L107:
	.loc 1 1168 0
	movq	%r13, %rsi
	movq	%r14, %rdi
	call	value_required
	.loc 1 1169 0
	movq	%r13, %rdi
	call	e_strdup
	movq	%rax, p3p(%rip)
	jmp	.L45
.L106:
	.loc 1 1163 0
	movq	%r13, %rsi
	movq	%r14, %rdi
	call	value_required
	.loc 1 1164 0
	movq	%r13, %rdi
	call	e_strdup
	movq	%rax, charset(%rip)
	jmp	.L45
.L105:
	.loc 1 1158 0
	movq	%r13, %rsi
	movq	%r14, %rdi
	call	value_required
	.loc 1 1159 0
	movq	%r13, %rdi
	call	e_strdup
	movq	%rax, pidfile(%rip)
	jmp	.L45
.L104:
	.loc 1 1153 0
	movq	%r13, %rsi
	movq	%r14, %rdi
	call	no_value_required
	.loc 1 1154 0
	movl	$0, do_global_passwd(%rip)
	jmp	.L45
.L103:
	.loc 1 1148 0
	movq	%r13, %rsi
	movq	%r14, %rdi
	call	no_value_required
	.loc 1 1149 0
	movl	$1, do_global_passwd(%rip)
	jmp	.L45
.L102:
	.loc 1 1143 0
	movq	%r13, %rsi
	movq	%r14, %rdi
	call	no_value_required
	.loc 1 1144 0
	movl	$0, do_vhost(%rip)
	jmp	.L45
.L101:
	.loc 1 1138 0
	movq	%r13, %rsi
	movq	%r14, %rdi
	call	no_value_required
	.loc 1 1139 0
	movl	$1, do_vhost(%rip)
	jmp	.L45
.L100:
	.loc 1 1133 0
	movq	%r13, %rsi
	movq	%r14, %rdi
	call	value_required
	.loc 1 1134 0
	movq	%r13, %rdi
	call	e_strdup
	movq	%rax, logfile(%rip)
	jmp	.L45
	.cfi_endproc
.LFE50:
	.size	read_config, .-read_config
	.section	.rodata.str1.1
.LC38:
	.string	"too many connections!"
	.section	.rodata.str1.8
	.align 8
.LC39:
	.string	"the connects free list is messed up"
	.align 8
.LC40:
	.string	"out of memory allocating an httpd_conn"
	.text
	.p2align 4,,15
	.type	handle_newconnect, @function
handle_newconnect:
.LFB57:
	.loc 1 1505 0
	.cfi_startproc
.LVL66:
	pushq	%r12
	.cfi_def_cfa_offset 16
	.cfi_offset 12, -16
	movl	num_connects(%rip), %eax
	movq	%rdi, %r12
	pushq	%rbp
	.cfi_def_cfa_offset 24
	.cfi_offset 6, -24
	movl	%esi, %ebp
	pushq	%rbx
	.cfi_def_cfa_offset 32
	.cfi_offset 3, -32
.LVL67:
.L123:
	.loc 1 1516 0
	cmpl	%eax, max_connects(%rip)
	jle	.L125
	.loc 1 1527 0
	movl	first_free_connect(%rip), %eax
	cmpl	$-1, %eax
	je	.L112
	cltq
	leaq	(%rax,%rax,8), %rbx
	salq	$4, %rbx
	addq	connects(%rip), %rbx
	movl	(%rbx), %ecx
	testl	%ecx, %ecx
	jne	.L112
.LVL68:
	.loc 1 1534 0
	movq	8(%rbx), %rdx
	testq	%rdx, %rdx
	je	.L126
.L114:
	.loc 1 1547 0
	movq	hs(%rip), %rdi
	movl	%ebp, %esi
	call	httpd_get_conn
	testl	%eax, %eax
	jne	.L127
	.loc 1 1553 0
	movq	%r12, %rdi
	call	tmr_run
	xorl	%eax, %eax
.LVL69:
.L111:
	.loc 1 1581 0
	popq	%rbx
	.cfi_remember_state
	.cfi_def_cfa_offset 24
	popq	%rbp
	.cfi_def_cfa_offset 16
.LVL70:
	popq	%r12
	.cfi_def_cfa_offset 8
.LVL71:
	ret
.LVL72:
	.p2align 4,,10
	.p2align 3
.L127:
	.cfi_restore_state
	.loc 1 1547 0
	cmpl	$2, %eax
	je	.L128
	.loc 1 1562 0
	movl	4(%rbx), %eax
	.loc 1 1560 0
	movl	$1, (%rbx)
	.loc 1 1567 0
	movq	$0, 96(%rbx)
	.loc 1 1568 0
	movq	$0, 104(%rbx)
	.loc 1 1562 0
	movl	%eax, first_free_connect(%rip)
	.loc 1 1566 0
	movq	(%r12), %rax
	.loc 1 1563 0
	movl	$-1, 4(%rbx)
	.loc 1 1564 0
	addl	$1, num_connects(%rip)
	.loc 1 1570 0
	movl	$0, 56(%rbx)
	.loc 1 1569 0
	movq	$0, 136(%rbx)
	.loc 1 1566 0
	movq	%rax, 88(%rbx)
	.loc 1 1573 0
	movq	8(%rbx), %rax
	movl	704(%rax), %edi
	call	httpd_set_ndelay
	.loc 1 1575 0
	movq	8(%rbx), %rax
	xorl	%edx, %edx
	movq	%rbx, %rsi
	movl	704(%rax), %edi
	call	fdwatch_add_fd
	.loc 1 1577 0
	addq	$1, stats_connections(%rip)
	.loc 1 1578 0
	movl	num_connects(%rip), %eax
	cmpl	stats_simultaneous(%rip), %eax
	jle	.L123
	.loc 1 1579 0
	movl	%eax, stats_simultaneous(%rip)
	jmp	.L123
	.p2align 4,,10
	.p2align 3
.L128:
	.loc 1 1581 0
	popq	%rbx
	.cfi_remember_state
	.cfi_def_cfa_offset 24
.LVL73:
	popq	%rbp
	.cfi_def_cfa_offset 16
.LVL74:
	.loc 1 1579 0
	movl	$1, %eax
	.loc 1 1581 0
	popq	%r12
	.cfi_def_cfa_offset 8
.LVL75:
	ret
.LVL76:
	.p2align 4,,10
	.p2align 3
.L126:
	.cfi_restore_state
	.loc 1 1536 0
	movl	$720, %edi
	call	malloc
	.loc 1 1537 0
	testq	%rax, %rax
	.loc 1 1536 0
	movq	%rax, 8(%rbx)
	.loc 1 1537 0
	je	.L129
	.loc 1 1542 0
	movl	$0, (%rax)
	.loc 1 1543 0
	movq	%rax, %rdx
	addl	$1, httpd_conn_count(%rip)
	jmp	.L114
.LVL77:
	.p2align 4,,10
	.p2align 3
.L125:
	.loc 1 1522 0
	xorl	%eax, %eax
	movl	$.LC38, %esi
	movl	$4, %edi
	call	syslog
	.loc 1 1523 0
	movq	%r12, %rdi
	call	tmr_run
	xorl	%eax, %eax
	.loc 1 1524 0
	jmp	.L111
.L112:
	.loc 1 1529 0
	movl	$2, %edi
	movl	$.LC39, %esi
	xorl	%eax, %eax
	call	syslog
	.loc 1 1530 0
	movl	$1, %edi
	call	exit
.LVL78:
.L129:
	.loc 1 1539 0
	movl	$2, %edi
	movl	$.LC40, %esi
	call	syslog
	.loc 1 1540 0
	movl	$1, %edi
	call	exit
	.cfi_endproc
.LFE57:
	.size	handle_newconnect, .-handle_newconnect
	.p2align 4,,15
	.type	really_clear_connection, @function
really_clear_connection:
.LFB66:
	.loc 1 2048 0
	.cfi_startproc
.LVL79:
	pushq	%rbx
	.cfi_def_cfa_offset 16
	.cfi_offset 3, -16
	movq	%rdi, %rbx
	subq	$16, %rsp
	.cfi_def_cfa_offset 32
	.loc 1 2049 0
	movq	8(%rdi), %rdi
.LVL80:
	movq	200(%rdi), %rax
	addq	%rax, stats_bytes(%rip)
	.loc 1 2050 0
	cmpl	$3, (%rbx)
	je	.L131
	.loc 1 2051 0
	movl	704(%rdi), %edi
	movq	%rsi, 8(%rsp)
	call	fdwatch_del_fd
.LVL81:
	movq	8(%rbx), %rdi
	movq	8(%rsp), %rsi
.L131:
	.loc 1 2052 0
	call	httpd_close_conn
.LVL82:
.LBB101:
.LBB102:
	.loc 1 1926 0
	movl	56(%rbx), %eax
	testl	%eax, %eax
	jle	.L132
	.loc 1 2047 0
	subl	$1, %eax
	.loc 1 1926 0
	movq	throttles(%rip), %rcx
	.loc 1 2047 0
	xorl	%edx, %edx
	leaq	4(,%rax,4), %rsi
.LVL83:
	.p2align 4,,10
	.p2align 3
.L133:
	.loc 1 1927 0
	movslq	16(%rbx,%rdx), %rax
	addq	$4, %rdx
	leaq	(%rax,%rax,2), %rax
	salq	$4, %rax
	subl	$1, 40(%rcx,%rax)
	.loc 1 1926 0
	cmpq	%rsi, %rdx
	jne	.L133
.L132:
.LBE102:
.LBE101:
	.loc 1 2054 0
	movq	104(%rbx), %rdi
	testq	%rdi, %rdi
	je	.L134
	.loc 1 2056 0
	call	tmr_cancel
	.loc 1 2057 0
	movq	$0, 104(%rbx)
.L134:
	.loc 1 2060 0
	movl	first_free_connect(%rip), %eax
	.loc 1 2059 0
	movl	$0, (%rbx)
	.loc 1 2060 0
	movl	%eax, 4(%rbx)
	.loc 1 2061 0
	subq	connects(%rip), %rbx
.LVL84:
	movabsq	$-8198552921648689607, %rax
	.loc 1 2062 0
	subl	$1, num_connects(%rip)
	.loc 1 2061 0
	sarq	$4, %rbx
	imulq	%rax, %rbx
	movl	%ebx, first_free_connect(%rip)
	.loc 1 2063 0
	addq	$16, %rsp
	.cfi_def_cfa_offset 16
	popq	%rbx
	.cfi_def_cfa_offset 8
	ret
	.cfi_endproc
.LFE66:
	.size	really_clear_connection, .-really_clear_connection
	.section	.rodata.str1.8
	.align 8
.LC41:
	.string	"replacing non-null linger_timer!"
	.align 8
.LC42:
	.string	"tmr_create(linger_clear_connection) failed"
	.text
	.p2align 4,,15
	.type	clear_connection, @function
clear_connection:
.LFB65:
	.loc 1 1996 0
	.cfi_startproc
.LVL85:
	pushq	%rbp
	.cfi_def_cfa_offset 16
	.cfi_offset 6, -16
	movq	%rsi, %rbp
	pushq	%rbx
	.cfi_def_cfa_offset 24
	.cfi_offset 3, -24
	movq	%rdi, %rbx
	subq	$8, %rsp
	.cfi_def_cfa_offset 32
	.loc 1 1999 0
	movq	96(%rdi), %rdi
.LVL86:
	testq	%rdi, %rdi
	je	.L138
	.loc 1 2001 0
	call	tmr_cancel
.LVL87:
	.loc 1 2002 0
	movq	$0, 96(%rbx)
.L138:
	.loc 1 2016 0
	movl	(%rbx), %edx
	cmpl	$4, %edx
	je	.L145
	.loc 1 2023 0
	movq	8(%rbx), %rax
	movl	556(%rax), %esi
	testl	%esi, %esi
	je	.L140
	.loc 1 2025 0
	cmpl	$3, %edx
	je	.L141
	.loc 1 2026 0
	movl	704(%rax), %edi
	call	fdwatch_del_fd
	movq	8(%rbx), %rax
.L141:
	.loc 1 2027 0
	movl	$4, (%rbx)
	.loc 1 2028 0
	movl	704(%rax), %edi
	movl	$1, %esi
	call	shutdown
	.loc 1 2029 0
	movq	8(%rbx), %rax
	xorl	%edx, %edx
	movq	%rbx, %rsi
	movl	704(%rax), %edi
	call	fdwatch_add_fd
	.loc 1 2031 0
	cmpq	$0, 104(%rbx)
	je	.L142
	.loc 1 2032 0
	movl	$.LC41, %esi
	movl	$3, %edi
	xorl	%eax, %eax
	call	syslog
.L142:
	.loc 1 2033 0
	xorl	%r8d, %r8d
	movl	$500, %ecx
	movq	%rbx, %rdx
	movl	$linger_clear_connection, %esi
	movq	%rbp, %rdi
	call	tmr_create
	.loc 1 2035 0
	testq	%rax, %rax
	.loc 1 2033 0
	movq	%rax, 104(%rbx)
	.loc 1 2035 0
	je	.L146
	.loc 1 2043 0
	addq	$8, %rsp
	.cfi_remember_state
	.cfi_def_cfa_offset 24
	popq	%rbx
	.cfi_def_cfa_offset 16
.LVL88:
	popq	%rbp
	.cfi_def_cfa_offset 8
.LVL89:
	ret
.LVL90:
	.p2align 4,,10
	.p2align 3
.L145:
	.cfi_restore_state
	.loc 1 2019 0
	movq	104(%rbx), %rdi
	call	tmr_cancel
	.loc 1 2021 0
	movq	8(%rbx), %rax
	.loc 1 2020 0
	movq	$0, 104(%rbx)
	.loc 1 2021 0
	movl	$0, 556(%rax)
.L140:
	.loc 1 2043 0
	addq	$8, %rsp
	.cfi_remember_state
	.cfi_def_cfa_offset 24
	.loc 1 2042 0
	movq	%rbx, %rdi
	movq	%rbp, %rsi
	.loc 1 2043 0
	popq	%rbx
	.cfi_def_cfa_offset 16
.LVL91:
	popq	%rbp
	.cfi_def_cfa_offset 8
.LVL92:
	.loc 1 2042 0
	jmp	really_clear_connection
.LVL93:
.L146:
	.cfi_restore_state
	.loc 1 2037 0
	movl	$2, %edi
	movl	$.LC42, %esi
	call	syslog
	.loc 1 2038 0
	movl	$1, %edi
	call	exit
	.cfi_endproc
.LFE65:
	.size	clear_connection, .-clear_connection
	.p2align 4,,15
	.type	linger_clear_connection, @function
linger_clear_connection:
.LFB69:
	.loc 1 2119 0
	.cfi_startproc
.LVL94:
	.loc 1 2123 0
	movq	$0, 104(%rdi)
	.loc 1 2124 0
	jmp	really_clear_connection
	.cfi_endproc
.LFE69:
	.size	linger_clear_connection, .-linger_clear_connection
	.p2align 4,,15
	.type	finish_connection, @function
finish_connection:
.LFB64:
	.loc 1 1985 0
	.cfi_startproc
.LVL95:
	movq	%rbx, -16(%rsp)
	movq	%rbp, -8(%rsp)
	movq	%rdi, %rbx
	.cfi_offset 6, -16
	.cfi_offset 3, -24
	subq	$24, %rsp
	.cfi_def_cfa_offset 32
	.loc 1 1987 0
	movq	8(%rdi), %rdi
.LVL96:
	.loc 1 1985 0
	movq	%rsi, %rbp
	.loc 1 1987 0
	call	httpd_write_response
.LVL97:
	.loc 1 1990 0
	movq	%rbp, %rsi
	movq	%rbx, %rdi
	.loc 1 1991 0
	movq	16(%rsp), %rbp
.LVL98:
	movq	8(%rsp), %rbx
.LVL99:
	addq	$24, %rsp
	.cfi_def_cfa_offset 8
	.loc 1 1990 0
	jmp	clear_connection
	.cfi_endproc
.LFE64:
	.size	finish_connection, .-finish_connection
	.section	.rodata.str1.8
	.align 8
.LC43:
	.string	"up %ld seconds, stats for %ld seconds:"
	.align 8
.LC44:
	.string	"  thttpd - %ld connections (%g/sec), %d max simultaneous, %lld bytes (%g/sec), %d httpd_conns allocated"
	.text
	.p2align 4,,15
	.type	logstats, @function
logstats:
.LFB72:
	.loc 1 2149 0
	.cfi_startproc
.LVL100:
	pushq	%rbx
	.cfi_def_cfa_offset 16
	.cfi_offset 3, -16
	subq	$16, %rsp
	.cfi_def_cfa_offset 32
	.loc 1 2154 0
	testq	%rdi, %rdi
	je	.L157
.L152:
	.loc 1 2159 0
	movq	(%rdi), %rax
.LVL101:
	.loc 1 2160 0
	movq	%rax, %rdx
	.loc 1 2162 0
	movq	%rax, %rbx
	.loc 1 2160 0
	subq	start_time(%rip), %rdx
.LVL102:
	.loc 1 2162 0
	subq	stats_time(%rip), %rbx
	je	.L153
	.loc 1 2164 0
	movq	%rax, stats_time(%rip)
	.loc 1 2165 0
	movq	%rbx, %rcx
	xorl	%eax, %eax
	movl	$.LC43, %esi
	movl	$6, %edi
.LVL103:
	call	syslog
.LVL104:
.LBB103:
.LBB105:
	.loc 1 2180 0
	testq	%rbx, %rbx
	jg	.L155
.LVL105:
.L154:
.LBE105:
.LBE103:
	.loc 1 2169 0
	movq	%rbx, %rdi
.LBB107:
.LBB104:
	.loc 1 2186 0
	movq	$0, stats_connections(%rip)
	.loc 1 2187 0
	movq	$0, stats_bytes(%rip)
	.loc 1 2188 0
	movl	$0, stats_simultaneous(%rip)
.LBE104:
.LBE107:
	.loc 1 2169 0
	call	httpd_logstats
	.loc 1 2170 0
	movq	%rbx, %rdi
	call	mmc_logstats
	.loc 1 2171 0
	movq	%rbx, %rdi
	call	fdwatch_logstats
	.loc 1 2172 0
	movq	%rbx, %rdi
	call	tmr_logstats
	.loc 1 2173 0
	addq	$16, %rsp
	.cfi_remember_state
	.cfi_def_cfa_offset 16
	popq	%rbx
	.cfi_def_cfa_offset 8
	ret
.LVL106:
	.p2align 4,,10
	.p2align 3
.L153:
	.cfi_restore_state
	.loc 1 2164 0
	movq	%rax, stats_time(%rip)
	.loc 1 2165 0
	movl	$1, %ecx
	movl	$.LC43, %esi
	movl	$6, %edi
.LVL107:
	xorl	%eax, %eax
.LVL108:
	movl	$1, %ebx
	call	syslog
.LVL109:
.L155:
.LBB108:
.LBB106:
	.loc 1 2185 0
	movq	stats_bytes(%rip), %r8
	.loc 1 2183 0
	movq	stats_connections(%rip), %rdx
	.loc 1 2181 0
	movl	$.LC44, %esi
	.loc 1 2185 0
	cvtsi2ssq	%rbx, %xmm2
	.loc 1 2181 0
	movl	httpd_conn_count(%rip), %r9d
	movl	stats_simultaneous(%rip), %ecx
	movl	$6, %edi
	movl	$2, %eax
	cvtsi2ssq	%r8, %xmm1
	cvtsi2ssq	%rdx, %xmm0
	divss	%xmm2, %xmm1
	divss	%xmm2, %xmm0
	unpcklps	%xmm1, %xmm1
	unpcklps	%xmm0, %xmm0
	cvtps2pd	%xmm1, %xmm1
	cvtps2pd	%xmm0, %xmm0
	call	syslog
	jmp	.L154
.LVL110:
	.p2align 4,,10
	.p2align 3
.L157:
.LBE106:
.LBE108:
	.loc 1 2156 0
	movq	%rsp, %rdi
.LVL111:
	xorl	%esi, %esi
	call	gettimeofday
.LVL112:
	movq	%rsp, %rdi
	jmp	.L152
	.cfi_endproc
.LFE72:
	.size	logstats, .-logstats
	.p2align 4,,15
	.type	shut_down, @function
shut_down:
.LFB56:
	.loc 1 1467 0
	.cfi_startproc
	pushq	%r12
	.cfi_def_cfa_offset 16
	.cfi_offset 12, -16
	.loc 1 1471 0
	xorl	%esi, %esi
	.loc 1 1467 0
	pushq	%rbp
	.cfi_def_cfa_offset 24
	.cfi_offset 6, -24
	pushq	%rbx
	.cfi_def_cfa_offset 32
	.cfi_offset 3, -32
	subq	$16, %rsp
	.cfi_def_cfa_offset 48
	.loc 1 1471 0
	movq	%rsp, %rdi
	call	gettimeofday
	.loc 1 1472 0
	movq	%rsp, %rdi
	call	logstats
.LVL113:
	.loc 1 1473 0
	movl	max_connects(%rip), %ebp
	testl	%ebp, %ebp
	jle	.L159
	xorl	%ebp, %ebp
	xorl	%r12d, %r12d
	jmp	.L162
.LVL114:
	.p2align 4,,10
	.p2align 3
.L160:
	.loc 1 1477 0
	movq	8(%rax), %rdi
	testq	%rdi, %rdi
	je	.L161
	.loc 1 1479 0
	call	httpd_destroy_conn
	.loc 1 1480 0
	movq	connects(%rip), %rax
	movq	8(%rax,%rbp), %rdi
	call	free
	.loc 1 1482 0
	movq	connects(%rip), %rax
	.loc 1 1481 0
	subl	$1, httpd_conn_count(%rip)
	.loc 1 1482 0
	movq	$0, 8(%rax,%rbp)
.L161:
	.loc 1 1473 0
	addl	$1, %r12d
.LVL115:
	addq	$144, %rbp
	cmpl	%r12d, max_connects(%rip)
	jle	.L159
.LVL116:
.L162:
	.loc 1 1475 0
	movq	%rbp, %rax
	addq	connects(%rip), %rax
	movl	(%rax), %edi
	testl	%edi, %edi
	je	.L160
	.loc 1 1476 0
	movq	8(%rax), %rdi
	movq	%rsp, %rsi
	call	httpd_close_conn
	movq	%rbp, %rax
	addq	connects(%rip), %rax
	jmp	.L160
	.p2align 4,,10
	.p2align 3
.L159:
	.loc 1 1485 0
	movq	hs(%rip), %rbx
	testq	%rbx, %rbx
	je	.L163
.LVL117:
.LBB109:
	.loc 1 1489 0
	movl	72(%rbx), %edi
	.loc 1 1488 0
	movq	$0, hs(%rip)
	.loc 1 1489 0
	cmpl	$-1, %edi
	je	.L164
	.loc 1 1490 0
	call	fdwatch_del_fd
.LVL118:
.L164:
	.loc 1 1491 0
	movl	76(%rbx), %edi
	cmpl	$-1, %edi
	je	.L165
	.loc 1 1492 0
	call	fdwatch_del_fd
.L165:
	.loc 1 1493 0
	movq	%rbx, %rdi
	call	httpd_terminate
.LVL119:
.L163:
.LBE109:
	.loc 1 1495 0
	call	mmc_destroy
	.loc 1 1496 0
	call	tmr_destroy
	.loc 1 1497 0
	movq	connects(%rip), %rdi
	call	free
	.loc 1 1498 0
	movq	throttles(%rip), %rdi
	testq	%rdi, %rdi
	je	.L167
	.loc 1 1499 0
	call	free
.L167:
	.loc 1 1500 0
	addq	$16, %rsp
	.cfi_def_cfa_offset 32
	popq	%rbx
	.cfi_def_cfa_offset 24
	popq	%rbp
	.cfi_def_cfa_offset 16
	popq	%r12
	.cfi_def_cfa_offset 8
	ret
	.cfi_endproc
.LFE56:
	.size	shut_down, .-shut_down
	.section	.rodata.str1.1
.LC45:
	.string	"exiting"
	.text
	.p2align 4,,15
	.type	handle_usr1, @function
handle_usr1:
.LFB43:
	.loc 1 257 0
	.cfi_startproc
.LVL120:
	subq	$8, %rsp
	.cfi_def_cfa_offset 16
	.loc 1 260 0
	movl	num_connects(%rip), %r8d
	testl	%r8d, %r8d
	je	.L172
	.loc 1 273 0
	movl	$1, got_usr1(%rip)
	.loc 1 276 0
	addq	$8, %rsp
	.cfi_remember_state
	.cfi_def_cfa_offset 8
	ret
.L172:
	.cfi_restore_state
	.loc 1 266 0
	call	shut_down
.LVL121:
	.loc 1 267 0
	movl	$5, %edi
	movl	$.LC45, %esi
	xorl	%eax, %eax
	call	syslog
	.loc 1 268 0
	call	closelog
	.loc 1 269 0
	xorl	%edi, %edi
	call	exit
	.cfi_endproc
.LFE43:
	.size	handle_usr1, .-handle_usr1
	.section	.rodata.str1.1
.LC46:
	.string	"exiting due to signal %d"
	.text
	.p2align 4,,15
	.type	handle_term, @function
handle_term:
.LFB40:
	.loc 1 172 0
	.cfi_startproc
.LVL122:
	pushq	%rbx
	.cfi_def_cfa_offset 16
	.cfi_offset 3, -16
	.loc 1 172 0
	movl	%edi, %ebx
	.loc 1 175 0
	call	shut_down
.LVL123:
	.loc 1 176 0
	movl	$5, %edi
	movl	%ebx, %edx
	movl	$.LC46, %esi
	xorl	%eax, %eax
	call	syslog
	.loc 1 177 0
	call	closelog
	.loc 1 178 0
	movl	$1, %edi
	call	exit
	.cfi_endproc
.LFE40:
	.size	handle_term, .-handle_term
	.p2align 4,,15
	.type	show_stats, @function
show_stats:
.LFB71:
	.loc 1 2140 0
	.cfi_startproc
.LVL124:
	.loc 1 2141 0
	movq	%rsi, %rdi
.LVL125:
	jmp	logstats
	.cfi_endproc
.LFE71:
	.size	show_stats, .-show_stats
	.p2align 4,,15
	.type	handle_usr2, @function
handle_usr2:
.LFB44:
	.loc 1 282 0
	.cfi_startproc
.LVL126:
	movq	%rbx, -16(%rsp)
	movq	%rbp, -8(%rsp)
	subq	$24, %rsp
	.cfi_def_cfa_offset 32
	.cfi_offset 6, -16
	.cfi_offset 3, -24
	.loc 1 283 0
	call	__errno_location
.LVL127:
	movl	(%rax), %ebp
.LVL128:
	movq	%rax, %rbx
	.loc 1 290 0
	xorl	%edi, %edi
	call	logstats
.LVL129:
	.loc 1 293 0
	movl	%ebp, (%rbx)
	.loc 1 294 0
	movq	8(%rsp), %rbx
	movq	16(%rsp), %rbp
.LVL130:
	addq	$24, %rsp
	.cfi_def_cfa_offset 8
	ret
	.cfi_endproc
.LFE44:
	.size	handle_usr2, .-handle_usr2
	.section	.rodata.str1.8
	.align 8
.LC47:
	.string	"%.80s connection timed out reading"
	.section	.rodata.str1.1
.LC48:
	.string	""
	.section	.rodata.str1.8
	.align 8
.LC49:
	.string	"%.80s connection timed out sending"
	.text
	.p2align 4,,15
	.type	idle, @function
idle:
.LFB67:
	.loc 1 2068 0
	.cfi_startproc
.LVL131:
	pushq	%r13
	.cfi_def_cfa_offset 16
	.cfi_offset 13, -16
	movq	%rsi, %r13
	pushq	%r12
	.cfi_def_cfa_offset 24
	.cfi_offset 12, -24
	pushq	%rbp
	.cfi_def_cfa_offset 32
	.cfi_offset 6, -32
	pushq	%rbx
	.cfi_def_cfa_offset 40
	.cfi_offset 3, -40
	subq	$8, %rsp
	.cfi_def_cfa_offset 48
	.loc 1 2072 0
	movl	max_connects(%rip), %r9d
	testl	%r9d, %r9d
	jle	.L185
	xorl	%ebp, %ebp
	xorl	%r12d, %r12d
	jmp	.L184
.LVL132:
	.p2align 4,,10
	.p2align 3
.L189:
	.loc 1 2075 0
	jl	.L181
	cmpl	$3, %eax
	jg	.L181
	.loc 1 2090 0
	movq	0(%r13), %rax
	subq	88(%rbx), %rax
	cmpq	$299, %rax
	jg	.L188
.L181:
	.loc 1 2072 0
	addl	$1, %r12d
.LVL133:
	addq	$144, %rbp
	cmpl	%r12d, max_connects(%rip)
	jle	.L185
.LVL134:
.L184:
	.loc 1 2074 0
	movq	%rbp, %rbx
	addq	connects(%rip), %rbx
.LVL135:
	.loc 1 2075 0
	movl	(%rbx), %eax
	cmpl	$1, %eax
	jne	.L189
	.loc 1 2078 0
	movq	0(%r13), %rax
	subq	88(%rbx), %rax
	cmpq	$59, %rax
	jle	.L181
	.loc 1 2080 0
	movq	8(%rbx), %rdi
.LVL136:
	addq	$16, %rdi
	call	httpd_ntoa
	movl	$.LC47, %esi
	movq	%rax, %rdx
	movl	$6, %edi
	xorl	%eax, %eax
	call	syslog
	.loc 1 2083 0
	movq	8(%rbx), %rdi
	movq	httpd_err408form(%rip), %r8
	movl	$.LC48, %r9d
	movq	httpd_err408title(%rip), %rdx
	movq	%r9, %rcx
	movl	$408, %esi
	call	httpd_send_err
	.loc 1 2085 0
	movq	%r13, %rsi
	movq	%rbx, %rdi
	call	finish_connection
	jmp	.L181
.LVL137:
	.p2align 4,,10
	.p2align 3
.L185:
	.loc 1 2100 0
	addq	$8, %rsp
	.cfi_remember_state
	.cfi_def_cfa_offset 40
	popq	%rbx
	.cfi_def_cfa_offset 32
	popq	%rbp
	.cfi_def_cfa_offset 24
	popq	%r12
	.cfi_def_cfa_offset 16
	popq	%r13
	.cfi_def_cfa_offset 8
.LVL138:
	ret
.LVL139:
	.p2align 4,,10
	.p2align 3
.L188:
	.cfi_restore_state
	.loc 1 2092 0
	movq	8(%rbx), %rdi
.LVL140:
	addq	$16, %rdi
	call	httpd_ntoa
	movl	$.LC49, %esi
	movq	%rax, %rdx
	movl	$6, %edi
	xorl	%eax, %eax
	call	syslog
	.loc 1 2095 0
	movq	%r13, %rsi
	movq	%rbx, %rdi
	call	clear_connection
	jmp	.L181
	.cfi_endproc
.LFE67:
	.size	idle, .-idle
	.p2align 4,,15
	.type	occasional, @function
occasional:
.LFB70:
	.loc 1 2130 0
	.cfi_startproc
.LVL141:
	subq	$8, %rsp
	.cfi_def_cfa_offset 16
	.loc 1 2131 0
	movq	%rsi, %rdi
.LVL142:
	call	mmc_cleanup
.LVL143:
	.loc 1 2132 0
	call	tmr_cleanup
	.loc 1 2133 0
	movl	$1, watchdog_flag(%rip)
	.loc 1 2134 0
	addq	$8, %rsp
	.cfi_def_cfa_offset 8
	ret
	.cfi_endproc
.LFE70:
	.size	occasional, .-occasional
	.section	.rodata.str1.1
.LC50:
	.string	"/tmp"
	.text
	.p2align 4,,15
	.type	handle_alrm, @function
handle_alrm:
.LFB45:
	.loc 1 300 0
	.cfi_startproc
.LVL144:
	movq	%rbx, -16(%rsp)
	movq	%rbp, -8(%rsp)
	subq	$24, %rsp
	.cfi_def_cfa_offset 32
	.cfi_offset 6, -16
	.cfi_offset 3, -24
	.loc 1 301 0
	call	__errno_location
.LVL145:
	movq	%rax, %rbx
	movl	(%rax), %ebp
.LVL146:
	.loc 1 304 0
	movl	watchdog_flag(%rip), %eax
.LVL147:
	testl	%eax, %eax
	je	.L195
	.loc 1 318 0
	movl	$360, %edi
	.loc 1 311 0
	movl	$0, watchdog_flag(%rip)
	.loc 1 318 0
	call	alarm
.LVL148:
	.loc 1 321 0
	movl	%ebp, (%rbx)
	.loc 1 322 0
	movq	8(%rsp), %rbx
	movq	16(%rsp), %rbp
.LVL149:
	addq	$24, %rsp
	.cfi_remember_state
	.cfi_def_cfa_offset 8
	ret
.LVL150:
.L195:
	.cfi_restore_state
	.loc 1 307 0
	movl	$.LC50, %edi
	call	chdir
	.loc 1 309 0
	call	abort
	.cfi_endproc
.LFE45:
	.size	handle_alrm, .-handle_alrm
	.section	.rodata.str1.1
.LC51:
	.string	"child wait - %m"
	.text
	.p2align 4,,15
	.type	handle_chld, @function
handle_chld:
.LFB41:
	.loc 1 185 0
	.cfi_startproc
.LVL151:
	pushq	%r13
	.cfi_def_cfa_offset 16
	.cfi_offset 13, -16
	pushq	%r12
	.cfi_def_cfa_offset 24
	.cfi_offset 12, -24
	.loc 1 226 0
	xorl	%r12d, %r12d
	.loc 1 185 0
	pushq	%rbp
	.cfi_def_cfa_offset 32
	.cfi_offset 6, -32
	pushq	%rbx
	.cfi_def_cfa_offset 40
	.cfi_offset 3, -40
	subq	$24, %rsp
	.cfi_def_cfa_offset 64
	.loc 1 186 0
	call	__errno_location
.LVL152:
	movl	(%rax), %r13d
.LVL153:
	leaq	12(%rsp), %rbx
	movq	%rax, %rbp
.LVL154:
	.p2align 4,,10
	.p2align 3
.L203:
	.loc 1 199 0
	movl	$1, %edx
	movq	%rbx, %rsi
	movl	$-1, %edi
	call	waitpid
.LVL155:
	.loc 1 203 0
	cmpl	$0, %eax
	je	.L197
	.loc 1 205 0
	jl	.L204
	.loc 1 222 0
	movq	hs(%rip), %rax
.LVL156:
	testq	%rax, %rax
	je	.L203
	.loc 1 224 0
	movl	36(%rax), %edx
	.loc 1 226 0
	subl	$1, %edx
	cmovs	%r12d, %edx
	movl	%edx, 36(%rax)
	jmp	.L203
.LVL157:
	.p2align 4,,10
	.p2align 3
.L204:
	.loc 1 207 0
	movl	0(%rbp), %eax
.LVL158:
	cmpl	$11, %eax
	je	.L203
	cmpl	$4, %eax
	je	.L203
	.loc 1 212 0
	cmpl	$10, %eax
	je	.L197
	.loc 1 213 0
	movl	$.LC51, %esi
	movl	$3, %edi
	xorl	%eax, %eax
	call	syslog
.L197:
	.loc 1 231 0
	movl	%r13d, 0(%rbp)
	.loc 1 232 0
	addq	$24, %rsp
	.cfi_def_cfa_offset 40
	popq	%rbx
	.cfi_def_cfa_offset 32
	popq	%rbp
	.cfi_def_cfa_offset 24
	popq	%r12
	.cfi_def_cfa_offset 16
	popq	%r13
	.cfi_def_cfa_offset 8
.LVL159:
	ret
	.cfi_endproc
.LFE41:
	.size	handle_chld, .-handle_chld
	.section	.rodata.str1.1
.LC52:
	.string	"nobody"
.LC53:
	.string	"iso-8859-1"
.LC54:
	.string	"-V"
.LC55:
	.string	"thttpd/2.27.0 Oct 3, 2014"
.LC56:
	.string	"-C"
.LC57:
	.string	"-p"
.LC58:
	.string	"-d"
.LC59:
	.string	"-r"
.LC60:
	.string	"-nor"
.LC61:
	.string	"-dd"
.LC62:
	.string	"-s"
.LC63:
	.string	"-nos"
.LC64:
	.string	"-u"
.LC65:
	.string	"-c"
.LC66:
	.string	"-t"
.LC67:
	.string	"-h"
.LC68:
	.string	"-l"
.LC69:
	.string	"-v"
.LC70:
	.string	"-nov"
.LC71:
	.string	"-g"
.LC72:
	.string	"-nog"
.LC73:
	.string	"-i"
.LC74:
	.string	"-T"
.LC75:
	.string	"-P"
.LC76:
	.string	"-M"
.LC77:
	.string	"-D"
.LC78:
	.string	"%d"
.LC79:
	.string	"getaddrinfo %.80s - %.80s"
.LC80:
	.string	"%s: getaddrinfo %s - %s\n"
	.section	.rodata.str1.8
	.align 8
.LC81:
	.string	"%.80s - sockaddr too small (%lu < %lu)"
	.section	.rodata.str1.1
.LC82:
	.string	"can't find any valid address"
	.section	.rodata.str1.8
	.align 8
.LC83:
	.string	"%s: can't find any valid address\n"
	.section	.rodata.str1.1
.LC84:
	.string	"%.80s - %m"
.LC85:
	.string	" %4900[^ \t] %ld-%ld"
.LC86:
	.string	" %4900[^ \t] %ld"
	.section	.rodata.str1.8
	.align 8
.LC87:
	.string	"unparsable line in %.80s - %.80s"
	.align 8
.LC88:
	.string	"%s: unparsable line in %.80s - %.80s\n"
	.section	.rodata.str1.1
.LC89:
	.string	"|/"
	.section	.rodata.str1.8
	.align 8
.LC90:
	.string	"out of memory allocating a throttletab"
	.align 8
.LC91:
	.string	"%s: out of memory allocating a throttletab\n"
	.section	.rodata.str1.1
.LC92:
	.string	"unknown user - '%.80s'"
.LC93:
	.string	"%s: unknown user - '%s'\n"
.LC94:
	.string	"/dev/null"
.LC95:
	.string	"-"
.LC96:
	.string	"a"
	.section	.rodata.str1.8
	.align 8
.LC97:
	.string	"logfile is not an absolute path, you may not be able to re-open it"
	.align 8
.LC98:
	.string	"%s: logfile is not an absolute path, you may not be able to re-open it\n"
	.section	.rodata.str1.1
.LC99:
	.string	"fchown logfile - %m"
.LC100:
	.string	"fchown logfile"
.LC101:
	.string	"chdir - %m"
.LC102:
	.string	"chdir"
.LC103:
	.string	"daemon - %m"
.LC104:
	.string	"w"
.LC105:
	.string	"%d\n"
	.section	.rodata.str1.8
	.align 8
.LC106:
	.string	"fdwatch initialization failure"
	.section	.rodata.str1.1
.LC107:
	.string	"chroot - %m"
	.section	.rodata.str1.8
	.align 8
.LC108:
	.string	"logfile is not within the chroot tree, you will not be able to re-open it"
	.align 8
.LC109:
	.string	"%s: logfile is not within the chroot tree, you will not be able to re-open it\n"
	.section	.rodata.str1.1
.LC110:
	.string	"chroot chdir - %m"
.LC111:
	.string	"chroot chdir"
.LC112:
	.string	"data_dir chdir - %m"
.LC113:
	.string	"data_dir chdir"
.LC114:
	.string	"tmr_create(occasional) failed"
.LC115:
	.string	"tmr_create(idle) failed"
	.section	.rodata.str1.8
	.align 8
.LC116:
	.string	"tmr_create(update_throttles) failed"
	.section	.rodata.str1.1
.LC117:
	.string	"tmr_create(show_stats) failed"
.LC118:
	.string	"setgroups - %m"
.LC119:
	.string	"setgid - %m"
.LC120:
	.string	"initgroups - %m"
.LC121:
	.string	"setuid - %m"
	.section	.rodata.str1.8
	.align 8
.LC122:
	.string	"started as root without requesting chroot(), warning only"
	.align 8
.LC123:
	.string	"out of memory allocating a connecttab"
	.section	.rodata.str1.1
.LC124:
	.string	"re-opening logfile"
.LC125:
	.string	"re-opening %.80s - %m"
.LC126:
	.string	"fdwatch - %m"
	.section	.rodata.str1.8
	.align 8
.LC127:
	.string	"throttle sending count was negative - shouldn't happen!"
	.align 8
.LC128:
	.string	"replacing non-null wakeup_timer!"
	.align 8
.LC129:
	.string	"tmr_create(wakeup_connection) failed"
	.section	.rodata.str1.1
.LC130:
	.string	"write - %m sending %.80s"
	.text
	.p2align 4,,15
.globl main
	.type	main, @function
main:
.LFB47:
	.loc 1 353 0
	.cfi_startproc
.LVL160:
	pushq	%r15
	.cfi_def_cfa_offset 16
	.cfi_offset 15, -16
	pushq	%r14
	.cfi_def_cfa_offset 24
	.cfi_offset 14, -24
	pushq	%r13
	.cfi_def_cfa_offset 32
	.cfi_offset 13, -32
	pushq	%r12
	.cfi_def_cfa_offset 40
	.cfi_offset 12, -40
	movq	%rsi, %r12
	pushq	%rbp
	.cfi_def_cfa_offset 48
	.cfi_offset 6, -48
	movl	%edi, %ebp
	pushq	%rbx
	.cfi_def_cfa_offset 56
	.cfi_offset 3, -56
	subq	$14680, %rsp
	.cfi_def_cfa_offset 14736
	.loc 1 370 0
	movq	(%rsi), %rbx
	.loc 1 372 0
	movl	$47, %esi
.LVL161:
	.loc 1 353 0
	movq	%fs:40, %rax
	movq	%rax, 14664(%rsp)
	xorl	%eax, %eax
.LVL162:
	.loc 1 372 0
	movq	%rbx, %rdi
.LVL163:
	.loc 1 370 0
	movq	%rbx, argv0(%rip)
	.loc 1 372 0
	call	strrchr
.LVL164:
	.loc 1 374 0
	leaq	1(%rax), %rdx
	testq	%rax, %rax
	.loc 1 377 0
	movl	$9, %esi
	.loc 1 374 0
	cmovne	%rdx, %rbx
.LVL165:
	.loc 1 377 0
	movl	$24, %edx
	movq	%rbx, %rdi
	call	openlog
.LVL166:
.LBB188:
.LBB194:
	.loc 1 883 0
	cmpl	$1, %ebp
	.loc 1 840 0
	movl	$0, debug(%rip)
	.loc 1 841 0
	movw	$80, port(%rip)
	.loc 1 842 0
	movq	$0, dir(%rip)
	.loc 1 843 0
	movq	$0, data_dir(%rip)
	.loc 1 847 0
	movl	$0, do_chroot(%rip)
	.loc 1 849 0
	movl	$0, no_log(%rip)
	.loc 1 850 0
	movl	$0, no_symlink_check(%rip)
	.loc 1 854 0
	movl	$0, do_vhost(%rip)
	.loc 1 859 0
	movl	$0, do_global_passwd(%rip)
	.loc 1 864 0
	movq	$0, cgi_pattern(%rip)
	.loc 1 869 0
	movl	$0, cgi_limit(%rip)
	.loc 1 871 0
	movq	$0, url_pattern(%rip)
	.loc 1 872 0
	movl	$0, no_empty_referers(%rip)
	.loc 1 873 0
	movq	$0, local_pattern(%rip)
	.loc 1 874 0
	movq	$0, throttlefile(%rip)
	.loc 1 875 0
	movq	$0, hostname(%rip)
	.loc 1 876 0
	movq	$0, logfile(%rip)
	.loc 1 877 0
	movq	$0, pidfile(%rip)
	.loc 1 878 0
	movq	$.LC52, user(%rip)
	.loc 1 879 0
	movq	$.LC53, charset(%rip)
	.loc 1 880 0
	movq	$.LC48, p3p(%rip)
	.loc 1 881 0
	movl	$-1, max_age(%rip)
.LVL167:
	.loc 1 883 0
	jle	.L207
	movq	8(%r12), %r15
	cmpb	$45, (%r15)
	jne	.L208
	movl	$1, %ebx
.LVL168:
.LBB214:
	.loc 1 910 0
	movl	$.LC60, %r14d
	movl	$5, %r13d
	jmp	.L237
.LVL169:
	.p2align 4,,10
	.p2align 3
.L439:
.LBE214:
.LBB211:
.LBB212:
	.loc 1 890 0
	movzbl	1(%r15), %eax
	cmpb	.LC56+1(%rip), %al
	jne	.L210
.LVL170:
.LBE212:
.LBE211:
	movzbl	2(%r15), %eax
	cmpb	.LC56+2(%rip), %al
	jne	.L210
	addl	$1, %ebx
	cmpl	%ebx, %ebp
	jg	.L436
.LVL171:
.L212:
.LBB209:
.LBB210:
	.loc 1 895 0
	movzbl	.LC57(%rip), %eax
	cmpl	%eax, %edx
	jne	.L215
.LVL172:
	movzbl	1(%r15), %eax
	cmpb	.LC57+1(%rip), %al
	jne	.L215
.LBE210:
.LBE209:
	movzbl	2(%r15), %eax
	cmpb	.LC57+2(%rip), %al
	jne	.L215
	cmpl	%ebx, %ebp
	jg	.L437
.L215:
.LVL173:
.LBB207:
.LBB208:
	.loc 1 900 0
	movzbl	.LC58(%rip), %eax
	cmpl	%eax, %edx
	jne	.L216
.LVL174:
	movzbl	1(%r15), %eax
	cmpb	.LC58+1(%rip), %al
	jne	.L216
.LBE208:
.LBE207:
	movzbl	2(%r15), %eax
	cmpb	.LC58+2(%rip), %al
	jne	.L216
	cmpl	%ebx, %ebp
	jle	.L216
.LVL175:
	.loc 1 903 0
	movslq	%ebx, %rax
	addl	$1, %ebx
.LVL176:
	movq	(%r12,%rax,8), %rax
.LVL177:
	movq	%rax, dir(%rip)
.LVL178:
.L214:
	.loc 1 883 0
	cmpl	%ebx, %ebp
	jle	.L236
.L440:
	movslq	%ebx, %rax
	movq	(%r12,%rax,8), %r15
.LVL179:
	cmpb	$45, (%r15)
	jne	.L208
.LVL180:
.L237:
.LBB205:
.LBB206:
	.loc 1 885 0
	movzbl	(%r15), %edx
	movzbl	.LC54(%rip), %eax
	cmpl	%eax, %edx
	jne	.L209
.LVL181:
	movzbl	1(%r15), %eax
	cmpb	.LC54+1(%rip), %al
	jne	.L209
.LBE206:
.LBE205:
	movzbl	2(%r15), %eax
	cmpb	.LC54+2(%rip), %al
	je	.L438
.L209:
.LVL182:
.LBB204:
.LBB213:
	.loc 1 890 0
	movzbl	.LC56(%rip), %eax
	cmpl	%eax, %edx
	je	.L439
.L210:
.LBE213:
.LBE204:
	.loc 1 893 0
	addl	$1, %ebx
	jmp	.L212
.LVL183:
	.p2align 4,,10
	.p2align 3
.L216:
.LBB202:
.LBB203:
	.loc 1 905 0
	movzbl	.LC59(%rip), %eax
	cmpl	%eax, %edx
	jne	.L217
.LVL184:
	movzbl	1(%r15), %eax
	cmpb	.LC59+1(%rip), %al
	jne	.L217
.LBE203:
.LBE202:
	movzbl	2(%r15), %eax
	cmpb	.LC59+2(%rip), %al
	jne	.L217
	.loc 1 883 0
	cmpl	%ebx, %ebp
	.loc 1 907 0
	movl	$1, do_chroot(%rip)
	.loc 1 908 0
	movl	$1, no_symlink_check(%rip)
.LVL185:
	.loc 1 883 0
	jg	.L440
.LVL186:
.L236:
	.loc 1 983 0
	cmpl	%ebx, %ebp
	je	.L238
.L208:
	.loc 1 984 0
	call	usage
.L238:
.LBE194:
.LBE188:
.LBB256:
.LBB258:
	.loc 1 1247 0
	leaq	128(%rsp), %rbp
.LVL187:
	.loc 1 1251 0
	leaq	5280(%rsp), %rbx
.LBE258:
.LBE256:
	.loc 1 383 0
	call	tzset
.LVL188:
.LBB261:
.LBB259:
	.loc 1 1247 0
	xorl	%eax, %eax
	movq	%rbp, %rdi
	movl	$6, %ecx
	rep stosq
	.loc 1 1251 0
	movzwl	port(%rip), %ecx
	movl	$.LC78, %edx
	movl	$10, %esi
	movq	%rbx, %rdi
	.loc 1 1249 0
	movl	$1, 128(%rsp)
	.loc 1 1250 0
	movl	$1, 136(%rsp)
	.loc 1 1251 0
	call	snprintf
	.loc 1 1252 0
	movq	hostname(%rip), %rdi
	leaq	264(%rsp), %rcx
	movq	%rbp, %rdx
	movq	%rbx, %rsi
	call	getaddrinfo
	testl	%eax, %eax
	movl	%eax, %ebp
.LVL189:
	jne	.L441
.LVL190:
	.loc 1 1266 0
	movq	264(%rsp), %rax
.LVL191:
	testq	%rax, %rax
	movq	%rax, %rdi
.LVL192:
	je	.L240
	xorl	%ebp, %ebp
.LVL193:
	xorl	%esi, %esi
	jmp	.L244
.LVL194:
	.p2align 4,,10
	.p2align 3
.L443:
	.loc 1 1268 0
	cmpl	$10, %edx
	jne	.L241
	.loc 1 1271 0
	testq	%rsi, %rsi
	cmove	%rax, %rsi
.L241:
.LVL195:
	.loc 1 1266 0
	movq	40(%rax), %rax
.LVL196:
	testq	%rax, %rax
	je	.L442
.LVL197:
.L244:
	.loc 1 1268 0
	movl	4(%rax), %edx
	cmpl	$2, %edx
	jne	.L443
	.loc 1 1275 0
	testq	%rbp, %rbp
	cmove	%rax, %rbp
.LVL198:
	.loc 1 1266 0
	movq	40(%rax), %rax
.LVL199:
	testq	%rax, %rax
	jne	.L244
.L442:
	.loc 1 1281 0
	testq	%rsi, %rsi
	movl	$0, 112(%rsp)
	je	.L246
	.loc 1 1285 0
	movl	16(%rsi), %r8d
	cmpl	$128, %r8d
	ja	.L444
	.loc 1 1293 0
	leaq	14400(%rsp), %r8
	movl	$16, %ecx
	movq	%r8, %rdi
	rep stosq
	.loc 1 1294 0
	movq	%r8, %rdi
	mov	16(%rsi), %edx
	movq	24(%rsi), %rsi
.LVL200:
	call	memmove
.LVL201:
	movl	$1, 112(%rsp)
.LVL202:
.L246:
	.loc 1 1298 0
	testq	%rbp, %rbp
	je	.L445
	.loc 1 1302 0
	movl	16(%rbp), %r8d
	cmpl	$128, %r8d
	ja	.L446
	.loc 1 1310 0
	leaq	14528(%rsp), %r8
	xorl	%eax, %eax
	movl	$16, %ecx
	movq	%r8, %rdi
	rep stosq
	.loc 1 1311 0
	movq	%r8, %rdi
	mov	16(%rbp), %edx
	movq	24(%rbp), %rsi
	call	memmove
.LVL203:
	.loc 1 1315 0
	movq	264(%rsp), %rdi
	call	freeaddrinfo
	movl	$1, 116(%rsp)
.LVL204:
.L250:
.LBE259:
.LBE261:
	.loc 1 398 0
	movq	throttlefile(%rip), %r14
	.loc 1 395 0
	movl	$0, numthrottles(%rip)
	.loc 1 396 0
	movl	$0, maxthrottles(%rip)
	.loc 1 397 0
	movq	$0, throttles(%rip)
	.loc 1 398 0
	testq	%r14, %r14
	je	.L252
.LVL205:
.LBB262:
.LBB265:
	.loc 1 1379 0
	movl	$.LC8, %esi
	movq	%r14, %rdi
	call	fopen
.LVL206:
	.loc 1 1380 0
	testq	%rax, %rax
	.loc 1 1379 0
	movq	%rax, %r12
.LVL207:
	.loc 1 1380 0
	je	.L447
	.loc 1 1387 0
	leaq	208(%rsp), %rdi
	.loc 1 1408 0
	leaq	272(%rsp), %rbp
	.loc 1 1387 0
	xorl	%esi, %esi
	.loc 1 1408 0
	leaq	256(%rsp), %r13
	leaq	248(%rsp), %r15
	.loc 1 1387 0
	call	gettimeofday
.LVL208:
	.loc 1 1424 0
	leaq	1(%rbp), %rdx
	movq	%rdx, 120(%rsp)
.LVL209:
	.p2align 4,,10
	.p2align 3
.L415:
	.loc 1 1389 0
	movq	%r12, %rdx
	movl	$5000, %esi
	movq	%rbx, %rdi
	call	fgets
	testq	%rax, %rax
	je	.L448
	.loc 1 1392 0
	movl	$35, %esi
	movq	%rbx, %rdi
	call	strchr
.LVL210:
	.loc 1 1393 0
	testq	%rax, %rax
	je	.L255
	.loc 1 1394 0
	movb	$0, (%rax)
.L255:
	.loc 1 1397 0
	movq	%rbx, %rax
.LVL211:
.L256:
	movl	(%rax), %ecx
	addq	$4, %rax
	leal	-16843009(%rcx), %edx
	notl	%ecx
	andl	%ecx, %edx
	andl	$-2139062144, %edx
	je	.L256
	movl	%edx, %ecx
	shrl	$16, %ecx
	testl	$32896, %edx
	cmove	%ecx, %edx
	leaq	2(%rax), %rcx
	cmove	%rcx, %rax
	addb	%dl, %dl
	sbbq	$3, %rax
	subl	%ebx, %eax
.LVL212:
	.loc 1 1398 0
	testl	%eax, %eax
	jle	.L259
	.p2align 4,,10
	.p2align 3
.L410:
	.loc 1 1399 0
	subl	$1, %eax
.LVL213:
	movslq	%eax, %rcx
	movzbl	5280(%rsp,%rcx), %edx
	.loc 1 1398 0
	cmpb	$9, %dl
	je	.L260
	cmpb	$32, %dl
	je	.L260
	cmpb	$10, %dl
	je	.L260
	cmpb	$13, %dl
	.p2align 4,,2
	jne	.L261
.L260:
.LVL214:
	testl	%eax, %eax
	.loc 1 1401 0
	movb	$0, 5280(%rsp,%rcx)
	.loc 1 1398 0
	jg	.L410
.L259:
	.loc 1 1404 0
	testl	%eax, %eax
	je	.L415
.LVL215:
	.p2align 4,,10
	.p2align 3
.L261:
	.loc 1 1408 0
	xorl	%eax, %eax
	movq	%r13, %r8
	movq	%r15, %rcx
	movq	%rbp, %rdx
	movl	$.LC85, %esi
	movq	%rbx, %rdi
	call	__isoc99_sscanf
	cmpl	$3, %eax
	je	.L262
	.loc 1 1410 0
	xorl	%eax, %eax
	movq	%r13, %rcx
	movq	%rbp, %rdx
	movl	$.LC86, %esi
	movq	%rbx, %rdi
	call	__isoc99_sscanf
	cmpl	$2, %eax
	jne	.L263
	.loc 1 1411 0
	movq	$0, 248(%rsp)
.L262:
	.loc 1 1423 0
	cmpb	$47, 272(%rsp)
	jne	.L412
	jmp	.L485
.LVL216:
	.p2align 4,,10
	.p2align 3
.L265:
	.loc 1 1426 0
	leaq	2(%rax), %rsi
	leaq	1(%rax), %rdi
	call	strcpy
.LVL217:
.L412:
	.loc 1 1425 0
	movl	$.LC89, %esi
	movq	%rbp, %rdi
	call	strstr
.LVL218:
	testq	%rax, %rax
	jne	.L265
	.loc 1 1429 0
	movl	numthrottles(%rip), %edx
	movl	maxthrottles(%rip), %eax
.LVL219:
	cmpl	%eax, %edx
	jl	.L266
	.loc 1 1431 0
	testl	%eax, %eax
	jne	.L267
	.loc 1 1434 0
	movl	$4800, %edi
	.loc 1 1433 0
	movl	$100, maxthrottles(%rip)
	.loc 1 1434 0
	call	malloc
	movq	%rax, %rcx
	movq	%rax, throttles(%rip)
.L268:
	.loc 1 1441 0
	testq	%rcx, %rcx
	je	.L269
	movl	numthrottles(%rip), %edx
.L270:
	.loc 1 1452 0
	movq	%rbp, %rdi
	movl	%edx, 104(%rsp)
	movq	%rcx, 96(%rsp)
	call	e_strdup
	movl	104(%rsp), %edx
	movq	96(%rsp), %rcx
	movslq	%edx, %rdx
	leaq	(%rdx,%rdx,2), %rdx
	salq	$4, %rdx
	movq	%rax, (%rdx,%rcx)
	.loc 1 1453 0
	movslq	numthrottles(%rip), %rax
	movq	throttles(%rip), %rdx
	movq	256(%rsp), %rcx
	leaq	(%rax,%rax,2), %rax
	salq	$4, %rax
	movq	%rcx, 8(%rax,%rdx)
	.loc 1 1454 0
	movq	248(%rsp), %rcx
	.loc 1 1457 0
	movl	$0, 40(%rdx,%rax)
	.loc 1 1455 0
	movq	$0, 24(%rdx,%rax)
	.loc 1 1456 0
	movq	$0, 32(%rdx,%rax)
	.loc 1 1459 0
	addl	$1, numthrottles(%rip)
	.loc 1 1454 0
	movq	%rcx, 16(%rdx,%rax)
	jmp	.L415
.LVL220:
	.p2align 4,,10
	.p2align 3
.L217:
.LBE265:
.LBE262:
.LBB269:
.LBB250:
.LBB215:
	.loc 1 910 0
	movq	%r15, %rsi
	movq	%r14, %rdi
	movq	%r13, %rcx
.LBE215:
	repz cmpsb
	jne	.L218
	.loc 1 912 0
	movl	$0, do_chroot(%rip)
	.loc 1 913 0
	movl	$0, no_symlink_check(%rip)
	jmp	.L214
.LVL221:
	.p2align 4,,10
	.p2align 3
.L436:
	.loc 1 893 0
	movslq	%ebx, %rax
	addl	$1, %ebx
.LVL222:
	movq	(%r12,%rax,8), %rdi
	call	read_config
.LVL223:
	jmp	.L214
.LVL224:
	.p2align 4,,10
	.p2align 3
.L218:
.LBB216:
.LBB217:
	.loc 1 915 0
	movzbl	.LC61(%rip), %eax
	cmpl	%eax, %edx
	jne	.L219
.LVL225:
	movzbl	1(%r15), %eax
	cmpb	.LC61+1(%rip), %al
	jne	.L219
	movzbl	2(%r15), %eax
	cmpb	.LC61+2(%rip), %al
	jne	.L219
.LBE217:
.LBE216:
	movzbl	3(%r15), %eax
	cmpb	.LC61+3(%rip), %al
	jne	.L219
	cmpl	%ebx, %ebp
	jle	.L219
.LVL226:
	.loc 1 918 0
	movslq	%ebx, %rax
	addl	$1, %ebx
.LVL227:
	movq	(%r12,%rax,8), %rax
.LVL228:
	movq	%rax, data_dir(%rip)
	jmp	.L214
.LVL229:
	.p2align 4,,10
	.p2align 3
.L219:
.LBB218:
.LBB219:
	.loc 1 920 0
	movzbl	.LC62(%rip), %eax
	cmpl	%eax, %edx
	jne	.L220
.LVL230:
	movzbl	1(%r15), %eax
	cmpb	.LC62+1(%rip), %al
	jne	.L220
.LBE219:
.LBE218:
	movzbl	2(%r15), %eax
	cmpb	.LC62+2(%rip), %al
	jne	.L220
	.loc 1 921 0
	movl	$0, no_symlink_check(%rip)
	jmp	.L214
.L220:
.LVL231:
.LBB220:
	.loc 1 922 0
	movq	%r15, %rsi
	movl	$.LC63, %edi
	movq	%r13, %rcx
.LBE220:
	repz cmpsb
	je	.L450
.LVL232:
.LBB221:
.LBB222:
	.loc 1 924 0
	movzbl	.LC64(%rip), %eax
	cmpl	%eax, %edx
	jne	.L222
.LVL233:
	movzbl	1(%r15), %eax
	cmpb	.LC64+1(%rip), %al
	jne	.L222
.LBE222:
.LBE221:
	movzbl	2(%r15), %eax
	cmpb	.LC64+2(%rip), %al
	jne	.L222
	cmpl	%ebx, %ebp
	jle	.L222
.LVL234:
	.loc 1 927 0
	movslq	%ebx, %rax
	addl	$1, %ebx
.LVL235:
	movq	(%r12,%rax,8), %rax
.LVL236:
	movq	%rax, user(%rip)
	jmp	.L214
.LVL237:
	.p2align 4,,10
	.p2align 3
.L437:
	.loc 2 286 0
	movslq	%ebx, %rax
.LBB223:
.LBB224:
	movl	$10, %edx
	xorl	%esi, %esi
	movq	(%r12,%rax,8), %rdi
.LBE224:
.LBE223:
	.loc 1 898 0
	addl	$1, %ebx
.LVL238:
.LBB226:
.LBB225:
	.loc 2 286 0
	call	strtol
.LVL239:
.LBE225:
.LBE226:
	.loc 1 898 0
	movw	%ax, port(%rip)
	jmp	.L214
.LVL240:
.L263:
.LBE250:
.LBE269:
.LBB270:
.LBB266:
	.loc 1 1414 0
	movq	%rbx, %rcx
	movq	%r14, %rdx
	xorl	%eax, %eax
	movl	$.LC87, %esi
	movl	$2, %edi
	call	syslog
	.loc 1 1416 0
	movq	argv0(%rip), %rdx
	movq	stderr(%rip), %rdi
	movq	%rbx, %r8
	movq	%r14, %rcx
	movl	$.LC88, %esi
	xorl	%eax, %eax
	call	fprintf
	jmp	.L415
.L267:
	.loc 1 1438 0
	addl	%eax, %eax
	.loc 1 1439 0
	movq	throttles(%rip), %rdi
	.loc 1 1438 0
	movl	%eax, maxthrottles(%rip)
	.loc 1 1439 0
	cltq
	leaq	(%rax,%rax,2), %rsi
	salq	$4, %rsi
	call	realloc
	movq	%rax, %rcx
	movq	%rax, throttles(%rip)
	jmp	.L268
.L448:
	.loc 1 1461 0
	movq	%r12, %rdi
	call	fclose
.LVL241:
.L252:
.LBE266:
.LBE270:
	.loc 1 404 0
	call	getuid
	testl	%eax, %eax
	movl	$32767, %r14d
	movl	$32767, %r15d
	je	.L451
.LVL242:
.L273:
	.loc 1 418 0
	movq	logfile(%rip), %rax
	xorl	%r12d, %r12d
	testq	%rax, %rax
	je	.L276
.LVL243:
.LBB271:
	.loc 1 420 0
	movl	$.LC94, %edi
	movl	$10, %ecx
	movq	%rax, %rsi
.LBE271:
	repz cmpsb
	je	.L452
.LVL244:
.LBB272:
.LBB273:
	.loc 1 425 0
	movzbl	(%rax), %edx
	cmpb	.LC95(%rip), %dl
	je	.L453
.LVL245:
.L278:
.LBE273:
.LBE272:
	.loc 1 429 0
	movl	$.LC96, %esi
	movq	%rax, %rdi
	call	fopen
.LVL246:
	.loc 1 430 0
	movq	logfile(%rip), %rdi
	movl	$384, %esi
	.loc 1 429 0
	movq	%rax, %r12
.LVL247:
	.loc 1 430 0
	call	chmod
.LVL248:
	.loc 1 431 0
	testl	%eax, %eax
	jne	.L393
	testq	%r12, %r12
	je	.L393
	.loc 1 437 0
	movq	logfile(%rip), %rax
.LVL249:
	cmpb	$47, (%rax)
	je	.L281
	.loc 1 439 0
	movl	$.LC97, %esi
	movl	$4, %edi
	xorl	%eax, %eax
	call	syslog
	.loc 1 440 0
	movq	argv0(%rip), %rdx
	movq	stderr(%rip), %rdi
	movl	$.LC98, %esi
	xorl	%eax, %eax
	call	fprintf
.L281:
	.loc 1 442 0
	movq	%r12, %rdi
	call	fileno
	movl	$1, %edx
	movl	%eax, %edi
	movl	$2, %esi
	xorl	%eax, %eax
	call	fcntl
	.loc 1 443 0
	call	getuid
	testl	%eax, %eax
	je	.L454
.LVL250:
.L276:
	.loc 1 460 0
	movq	dir(%rip), %rdi
	testq	%rdi, %rdi
	je	.L282
	.loc 1 462 0
	call	chdir
	testl	%eax, %eax
	js	.L455
.L282:
	.loc 1 486 0
	leaq	10288(%rsp), %rbp
	movl	$4096, %esi
	movq	%rbp, %rdi
	call	getcwd
	.loc 1 487 0
	movq	%rbp, %rdx
.L283:
	movl	(%rdx), %ecx
	addq	$4, %rdx
	leal	-16843009(%rcx), %eax
	notl	%ecx
	andl	%ecx, %eax
	andl	$-2139062144, %eax
	je	.L283
	movl	%eax, %ecx
	shrl	$16, %ecx
	testl	$32896, %eax
	cmove	%ecx, %eax
	leaq	2(%rdx), %rcx
	cmove	%rcx, %rdx
	addb	%al, %al
	sbbq	$3, %rdx
	subq	%rbp, %rdx
	cmpb	$47, 10287(%rsp,%rdx)
	je	.L285
	.loc 1 488 0
	movq	%rbp, %rdx
.L286:
	movl	(%rdx), %ecx
	addq	$4, %rdx
	leal	-16843009(%rcx), %eax
	notl	%ecx
	andl	%ecx, %eax
	andl	$-2139062144, %eax
	je	.L286
	movl	%eax, %ecx
	shrl	$16, %ecx
	testl	$32896, %eax
	cmove	%ecx, %eax
	leaq	2(%rdx), %rcx
	cmove	%rcx, %rdx
	addb	%al, %al
	sbbq	$3, %rdx
	movw	$47, (%rdx)
.L285:
	.loc 1 490 0
	movl	debug(%rip), %r8d
	testl	%r8d, %r8d
	jne	.L288
	.loc 1 495 0
	movq	stdin(%rip), %rdi
	call	fclose
	.loc 1 496 0
	movq	stdout(%rip), %rdi
	cmpq	%rdi, %r12
	je	.L289
	.loc 1 497 0
	call	fclose
.L289:
	.loc 1 498 0
	movq	stderr(%rip), %rdi
	call	fclose
	.loc 1 502 0
	movl	$1, %esi
	movl	$1, %edi
	call	daemon
	testl	%eax, %eax
	.loc 1 504 0
	movl	$.LC103, %esi
	.loc 1 502 0
	js	.L432
.L290:
	.loc 1 533 0
	movq	pidfile(%rip), %rdi
	testq	%rdi, %rdi
	je	.L291
.LBB274:
	.loc 1 536 0
	movl	$.LC104, %esi
	call	fopen
	.loc 1 537 0
	testq	%rax, %rax
	.loc 1 536 0
	movq	%rax, %r13
.LVL251:
	.loc 1 537 0
	je	.L456
	.loc 1 542 0
	call	getpid
.LVL252:
	movq	%r13, %rdi
	movl	%eax, %edx
	movl	$.LC105, %esi
	xorl	%eax, %eax
	call	fprintf
	.loc 1 543 0
	movq	%r13, %rdi
	call	fclose
.LVL253:
.L291:
.LBE274:
	.loc 1 549 0
	call	fdwatch_get_nfiles
	.loc 1 550 0
	testl	%eax, %eax
	.loc 1 549 0
	movl	%eax, max_connects(%rip)
	.loc 1 550 0
	js	.L457
	.loc 1 558 0
	movl	do_chroot(%rip), %edi
	.loc 1 555 0
	subl	$10, %eax
	movl	%eax, max_connects(%rip)
	.loc 1 558 0
	testl	%edi, %edi
	jne	.L458
.L294:
	.loc 1 598 0
	movq	data_dir(%rip), %rdi
	testq	%rdi, %rdi
	je	.L299
	.loc 1 600 0
	call	chdir
	testl	%eax, %eax
	js	.L459
.L299:
	.loc 1 610 0
	movl	$handle_term, %esi
	movl	$15, %edi
	xorl	%eax, %eax
	call	sigset
	.loc 1 611 0
	movl	$handle_term, %esi
	movl	$2, %edi
	xorl	%eax, %eax
	call	sigset
	.loc 1 612 0
	movl	$handle_chld, %esi
	movl	$17, %edi
	xorl	%eax, %eax
	call	sigset
	.loc 1 613 0
	movl	$1, %esi
	movl	$13, %edi
	xorl	%eax, %eax
	call	sigset
	.loc 1 614 0
	movl	$handle_hup, %esi
	movl	$1, %edi
	xorl	%eax, %eax
	call	sigset
	.loc 1 615 0
	movl	$handle_usr1, %esi
	movl	$10, %edi
	xorl	%eax, %eax
	call	sigset
	.loc 1 616 0
	movl	$handle_usr2, %esi
	movl	$12, %edi
	xorl	%eax, %eax
	call	sigset
	.loc 1 617 0
	movl	$handle_alrm, %esi
	movl	$14, %edi
	xorl	%eax, %eax
	call	sigset
	.loc 1 631 0
	movl	$360, %edi
	.loc 1 628 0
	movl	$0, got_hup(%rip)
	.loc 1 629 0
	movl	$0, got_usr1(%rip)
	.loc 1 630 0
	movl	$0, watchdog_flag(%rip)
	.loc 1 631 0
	call	alarm
	.loc 1 634 0
	call	tmr_init
	.loc 1 639 0
	movl	112(%rsp), %esi
	movl	116(%rsp), %ecx
	leaq	14400(%rsp), %rdx
	xorl	%eax, %eax
	movl	cgi_limit(%rip), %r9d
	movq	cgi_pattern(%rip), %r8
	movq	hostname(%rip), %rdi
	movq	%r12, 40(%rsp)
	testl	%esi, %esi
	leaq	14528(%rsp), %rsi
	movq	%rbp, 24(%rsp)
	cmove	%rax, %rdx
	testl	%ecx, %ecx
	movzwl	port(%rip), %ecx
	cmove	%rax, %rsi
	movl	no_empty_referers(%rip), %eax
	movl	%eax, 88(%rsp)
	movq	local_pattern(%rip), %rax
	movq	%rax, 80(%rsp)
	movq	url_pattern(%rip), %rax
	movq	%rax, 72(%rsp)
	movl	do_global_passwd(%rip), %eax
	movl	%eax, 64(%rsp)
	movl	do_vhost(%rip), %eax
	movl	%eax, 56(%rsp)
	movl	no_symlink_check(%rip), %eax
	movl	%eax, 48(%rsp)
	movl	no_log(%rip), %eax
	movl	%eax, 32(%rsp)
	movl	max_age(%rip), %eax
	movl	%eax, 16(%rsp)
	movq	p3p(%rip), %rax
	movq	%rax, 8(%rsp)
	movq	charset(%rip), %rax
	movq	%rax, (%rsp)
	call	httpd_initialize
	.loc 1 645 0
	testq	%rax, %rax
	.loc 1 639 0
	movq	%rax, hs(%rip)
	.loc 1 645 0
	je	.L433
	.loc 1 649 0
	movq	JunkClientData(%rip), %rdx
	xorl	%edi, %edi
	movl	$1, %r8d
	movl	$120000, %ecx
	movl	$occasional, %esi
	call	tmr_create
	testq	%rax, %rax
	je	.L460
	.loc 1 655 0
	movq	JunkClientData(%rip), %rdx
	xorl	%edi, %edi
	movl	$1, %r8d
	movl	$5000, %ecx
	movl	$idle, %esi
	call	tmr_create
	testq	%rax, %rax
	je	.L461
	.loc 1 660 0
	movl	numthrottles(%rip), %r13d
	testl	%r13d, %r13d
	jle	.L307
	.loc 1 663 0
	movq	JunkClientData(%rip), %rdx
	xorl	%edi, %edi
	movl	$1, %r8d
	movl	$2000, %ecx
	movl	$update_throttles, %esi
	call	tmr_create
	testq	%rax, %rax
	je	.L462
.L307:
	.loc 1 671 0
	movq	JunkClientData(%rip), %rdx
	xorl	%edi, %edi
	movl	$1, %r8d
	movl	$3600000, %ecx
	movl	$show_stats, %esi
	call	tmr_create
	testq	%rax, %rax
	je	.L463
	.loc 1 677 0
	xorl	%edi, %edi
	call	time
	.loc 1 678 0
	movq	$0, stats_connections(%rip)
	.loc 1 677 0
	movq	%rax, stats_time(%rip)
	movq	%rax, start_time(%rip)
	.loc 1 679 0
	movq	$0, stats_bytes(%rip)
	.loc 1 680 0
	movl	$0, stats_simultaneous(%rip)
	.loc 1 683 0
	call	getuid
	testl	%eax, %eax
	jne	.L309
	.loc 1 686 0
	xorl	%esi, %esi
	xorl	%edi, %edi
	call	setgroups
	testl	%eax, %eax
	.loc 1 688 0
	movl	$.LC118, %esi
	.loc 1 686 0
	js	.L432
	.loc 1 692 0
	movl	%r14d, %edi
	call	setgid
	testl	%eax, %eax
	.loc 1 694 0
	movl	$.LC119, %esi
	.loc 1 692 0
	js	.L432
	.loc 1 698 0
	movq	user(%rip), %rdi
	movl	%r14d, %esi
	call	initgroups
	testl	%eax, %eax
	js	.L464
.L312:
	.loc 1 705 0
	movl	%r15d, %edi
	call	setuid
	testl	%eax, %eax
	.loc 1 707 0
	movl	$.LC121, %esi
	.loc 1 705 0
	js	.L432
	.loc 1 711 0
	cmpl	$0, do_chroot(%rip)
	je	.L465
.L309:
	.loc 1 718 0
	movslq	max_connects(%rip), %rdi
	imulq	$144, %rdi, %rdi
	call	malloc
	.loc 1 719 0
	testq	%rax, %rax
	.loc 1 718 0
	movq	%rax, connects(%rip)
	.loc 1 719 0
	je	.L314
.LVL254:
	.loc 1 724 0
	movl	max_connects(%rip), %esi
	testl	%esi, %esi
	jle	.L316
	.loc 1 722 0
	movq	%rax, %rdx
	xorl	%ecx, %ecx
.LVL255:
.L317:
	.loc 1 727 0
	addl	$1, %ecx
	.loc 1 726 0
	movl	$0, (%rdx)
	.loc 1 728 0
	movq	$0, 8(%rdx)
.LVL256:
	.loc 1 727 0
	movl	%ecx, 4(%rdx)
	.loc 1 728 0
	addq	$144, %rdx
	.loc 1 724 0
	cmpl	%esi, %ecx
	jl	.L317
.LVL257:
.L316:
	.loc 1 730 0
	movslq	%esi, %rdx
	subq	$1, %rdx
	imulq	$144, %rdx, %rdx
	movl	$-1, 4(%rax,%rdx)
	.loc 1 735 0
	movq	hs(%rip), %rax
	.loc 1 731 0
	movl	$0, first_free_connect(%rip)
	.loc 1 732 0
	movl	$0, num_connects(%rip)
	.loc 1 733 0
	movl	$0, httpd_conn_count(%rip)
	.loc 1 735 0
	testq	%rax, %rax
	je	.L318
	.loc 1 737 0
	movl	72(%rax), %edi
	cmpl	$-1, %edi
	je	.L319
	.loc 1 738 0
	xorl	%edx, %edx
	xorl	%esi, %esi
	call	fdwatch_add_fd
	movq	hs(%rip), %rax
.L319:
	.loc 1 739 0
	movl	76(%rax), %edi
	cmpl	$-1, %edi
	je	.L318
	.loc 1 740 0
	xorl	%edx, %edx
	xorl	%esi, %esi
	call	fdwatch_add_fd
.L318:
	.loc 1 744 0
	leaq	224(%rsp), %r13
.LBB275:
.LBB278:
	.loc 1 1837 0
	movl	$1, %r14d
.LVL258:
.LBE278:
.LBE275:
	.loc 1 744 0
	movq	%r13, %rdi
	call	tmr_prepare_timeval
	movl	terminate(%rip), %eax
.LVL259:
.L417:
	.loc 1 745 0
	testl	%eax, %eax
	jne	.L396
.L388:
	.loc 1 748 0
	movl	got_hup(%rip), %eax
	testl	%eax, %eax
	jne	.L466
.L321:
	.loc 1 755 0
	movq	%r13, %rdi
	call	tmr_mstimeout
	movq	%rax, %rdi
	call	fdwatch
	.loc 1 756 0
	testl	%eax, %eax
	.loc 1 755 0
	movl	%eax, %ebp
.LVL260:
	.loc 1 756 0
	js	.L467
	.loc 1 763 0
	movq	%r13, %rdi
	call	tmr_prepare_timeval
.LVL261:
	.loc 1 765 0
	testl	%ebp, %ebp
	je	.L468
	.loc 1 773 0
	movq	hs(%rip), %rax
	testq	%rax, %rax
	je	.L414
	movl	76(%rax), %edi
	cmpl	$-1, %edi
	je	.L331
	.loc 1 774 0
	call	fdwatch_check_fd
	.loc 1 773 0
	testl	%eax, %eax
	jne	.L469
.L332:
	.loc 1 783 0
	movq	hs(%rip), %rax
	testq	%rax, %rax
	je	.L414
.L331:
	movl	72(%rax), %edi
	cmpl	$-1, %edi
	je	.L414
	.loc 1 784 0
	call	fdwatch_check_fd
	.loc 1 783 0
	testl	%eax, %eax
	jne	.L470
.LVL262:
	.p2align 4,,10
	.p2align 3
.L414:
	.loc 1 795 0
	call	fdwatch_get_next_client_data
	cmpq	$-1, %rax
	movq	%rax, %rbp
.LVL263:
	je	.L471
.L383:
	.loc 1 797 0
	testq	%rbp, %rbp
	je	.L414
.LVL264:
	.loc 1 800 0
	movq	8(%rbp), %rax
.LVL265:
	movl	704(%rax), %edi
	call	fdwatch_check_fd
.LVL266:
	testl	%eax, %eax
	je	.L369
	.loc 1 804 0
	movl	0(%rbp), %eax
	cmpl	$2, %eax
	je	.L335
	cmpl	$4, %eax
	je	.L336
	cmpl	$1, %eax
	jne	.L414
.LVL267:
.LBB284:
.LBB287:
	.loc 1 1589 0
	movq	8(%rbp), %r12
.LVL268:
	.loc 1 1592 0
	movq	152(%r12), %rdx
	cmpq	%rdx, 160(%r12)
	jb	.L337
	.loc 1 1594 0
	cmpq	$5000, %rdx
	ja	.L427
	.loc 1 1600 0
	leaq	152(%r12), %rsi
	leaq	144(%r12), %rdi
	addq	$1000, %rdx
	call	httpd_realloc_str
.LVL269:
	movq	152(%r12), %rdx
.L337:
	.loc 1 1605 0
	movq	144(%r12), %rsi
	addq	160(%r12), %rsi
	movl	704(%r12), %edi
	call	read
.LVL270:
	.loc 1 1608 0
	cmpl	$0, %eax
	je	.L427
	.loc 1 1614 0
	jl	.L472
	.loc 1 1628 0
	cltq
	addq	%rax, 160(%r12)
	.loc 1 1632 0
	movq	%r12, %rdi
	.loc 1 1629 0
	movq	224(%rsp), %rax
.LVL271:
	movq	%rax, 88(%rbp)
	.loc 1 1632 0
	call	httpd_got_request
	testl	%eax, %eax
	je	.L414
	cmpl	$2, %eax
	je	.L427
	.loc 1 1643 0
	movq	%r12, %rdi
	call	httpd_parse_request
	testl	%eax, %eax
	js	.L429
.LVL272:
.LBB288:
.LBB289:
	.loc 1 1889 0
	cmpl	$0, numthrottles(%rip)
	.loc 1 1887 0
	movl	$0, 56(%rbp)
	.loc 1 1888 0
	movq	$-1, 72(%rbp)
	movq	$-1, 64(%rbp)
.LVL273:
	.loc 1 1889 0
	jle	.L344
	xorl	%r15d, %r15d
	xorl	%ecx, %ecx
	jmp	.L351
.LVL274:
.L473:
	movq	throttles(%rip), %rsi
.L347:
	.loc 1 1904 0
	movl	56(%rbp), %eax
	movslq	%eax, %rdx
	addl	$1, %eax
	movl	%eax, 56(%rbp)
	.loc 1 1905 0
	movq	%r15, %rax
	addq	throttles(%rip), %rax
	.loc 1 1904 0
	movl	%ecx, 16(%rbp,%rdx,4)
	.loc 1 1905 0
	addl	$1, 40(%rax)
	.loc 1 1906 0
	movq	8(%rax), %rdx
	movslq	40(%rax), %rdi
	movq	%rdx, %rax
	sarq	$63, %rdx
	idivq	%rdi
.LVL275:
	.loc 1 1907 0
	movq	64(%rbp), %rdx
	cmpq	$-1, %rdx
	je	.L423
	.loc 1 1910 0
	cmpq	%rdx, %rax
	cmovg	%rdx, %rax
.LVL276:
.L423:
	.loc 1 1912 0
	movq	72(%rbp), %rdx
	.loc 1 1910 0
	movq	%rax, 64(%rbp)
	.loc 1 1911 0
	movq	16(%rsi,%r15), %rax
.LVL277:
	.loc 1 1912 0
	cmpq	$-1, %rdx
	je	.L424
	.loc 1 1915 0
	cmpq	%rax, %rdx
	cmovge	%rdx, %rax
.L424:
	movq	%rax, 72(%rbp)
.LVL278:
.L345:
	.loc 1 1890 0
	addl	$1, %ecx
.LVL279:
	.loc 1 1889 0
	cmpl	numthrottles(%rip), %ecx
	jge	.L344
	addq	$48, %r15
	cmpl	$9, 56(%rbp)
	jg	.L344
.LVL280:
.L351:
	.loc 1 1891 0
	movq	8(%rbp), %rax
	movl	%ecx, 96(%rsp)
	movq	240(%rax), %rsi
	movq	throttles(%rip), %rax
	movq	(%rax,%r15), %rdi
	call	match
	testl	%eax, %eax
	movl	96(%rsp), %ecx
	je	.L345
	.loc 1 1894 0
	movq	%r15, %rax
	addq	throttles(%rip), %rax
	movq	8(%rax), %rsi
	movq	24(%rax), %rdx
	addq	%rsi, %rsi
	cmpq	%rsi, %rdx
	jg	.L346
	.loc 1 1897 0
	cmpq	16(%rax), %rdx
	jl	.L346
	.loc 1 1899 0
	movl	40(%rax), %r11d
	testl	%r11d, %r11d
	jns	.L473
	.loc 1 1901 0
	movl	$.LC127, %esi
	movl	$3, %edi
	xorl	%eax, %eax
	movl	%ecx, 96(%rsp)
	call	syslog
	.loc 1 1902 0
	movq	throttles(%rip), %rsi
	movl	96(%rsp), %ecx
	movl	$0, 40(%rsi,%r15)
	jmp	.L347
.LVL281:
	.p2align 4,,10
	.p2align 3
.L266:
.LBE289:
.LBE288:
.LBE287:
.LBE284:
.LBB294:
.LBB264:
	.loc 1 1447 0
	movq	throttles(%rip), %rcx
	jmp	.L270
.LVL282:
.L450:
.LBE264:
.LBE294:
.LBB295:
.LBB193:
	.loc 1 923 0
	movl	$1, no_symlink_check(%rip)
	jmp	.L214
.LVL283:
.L452:
.LBE193:
.LBE295:
	.loc 1 422 0
	movl	$1, no_log(%rip)
.LVL284:
	jmp	.L276
.LVL285:
.L222:
.LBB296:
.LBB251:
.LBB227:
.LBB228:
	.loc 1 929 0
	movzbl	.LC65(%rip), %eax
	cmpl	%eax, %edx
	jne	.L223
.LVL286:
	movzbl	1(%r15), %eax
	cmpb	.LC65+1(%rip), %al
	jne	.L223
.LBE228:
.LBE227:
	movzbl	2(%r15), %eax
	cmpb	.LC65+2(%rip), %al
	jne	.L223
	cmpl	%ebx, %ebp
	jle	.L223
.LVL287:
	.loc 1 932 0
	movslq	%ebx, %rax
	addl	$1, %ebx
.LVL288:
	movq	(%r12,%rax,8), %rax
.LVL289:
	movq	%rax, cgi_pattern(%rip)
	jmp	.L214
.LVL290:
.L223:
.LBB229:
.LBB230:
	.loc 1 934 0
	movzbl	.LC66(%rip), %eax
	cmpl	%eax, %edx
	je	.L474
.LVL291:
.L224:
.LBE230:
.LBE229:
.LBB232:
.LBB233:
	.loc 1 939 0
	movzbl	.LC67(%rip), %eax
	cmpl	%eax, %edx
	jne	.L225
.LVL292:
	movzbl	1(%r15), %eax
	cmpb	.LC67+1(%rip), %al
	jne	.L225
.LBE233:
.LBE232:
	movzbl	2(%r15), %eax
	cmpb	.LC67+2(%rip), %al
	jne	.L225
	cmpl	%ebx, %ebp
	jle	.L225
.LVL293:
	.loc 1 942 0
	movslq	%ebx, %rax
	addl	$1, %ebx
.LVL294:
	movq	(%r12,%rax,8), %rax
.LVL295:
	movq	%rax, hostname(%rip)
	jmp	.L214
.LVL296:
.L485:
.LBE251:
.LBE296:
.LBB297:
.LBB267:
	.loc 1 1424 0
	movq	120(%rsp), %rsi
	movq	%rbp, %rdi
	call	strcpy
	jmp	.L412
.LVL297:
.L288:
.LBE267:
.LBE297:
	.loc 1 529 0
	call	setsid
	.p2align 4,,8
	jmp	.L290
.LVL298:
.L451:
	.loc 1 406 0
	movq	user(%rip), %rdi
	call	getpwnam
.LVL299:
	.loc 1 407 0
	testq	%rax, %rax
	je	.L475
	.loc 1 413 0
	movl	16(%rax), %r15d
.LVL300:
	.loc 1 414 0
	movl	20(%rax), %r14d
.LVL301:
	jmp	.L273
.LVL302:
.L240:
.LBB298:
.LBB257:
	.loc 1 1315 0
	movl	$0, 112(%rsp)
.LVL303:
.L248:
	call	freeaddrinfo
.LBE257:
.LBE298:
	.loc 1 387 0
	cmpl	$0, 112(%rsp)
	.loc 1 391 0
	movl	$0, 116(%rsp)
	.loc 1 387 0
	jne	.L250
	.loc 1 389 0
	movl	$.LC82, %esi
	movl	$3, %edi
	xorl	%eax, %eax
	call	syslog
	.loc 1 390 0
	movq	argv0(%rip), %rdx
	movl	$.LC83, %esi
.LVL304:
.L431:
.LBB299:
.LBB263:
	.loc 1 1444 0
	movq	stderr(%rip), %rdi
	xorl	%eax, %eax
	call	fprintf
.LVL305:
.L433:
	.loc 1 1447 0
	movl	$1, %edi
	call	exit
.LVL306:
.L453:
.LBE263:
.LBE299:
	.loc 1 425 0
	movzbl	1(%rax), %edx
	cmpb	.LC95+1(%rip), %dl
	jne	.L278
	.loc 1 426 0
	movq	stdout(%rip), %r12
.LVL307:
	jmp	.L276
.LVL308:
.L457:
	.loc 1 552 0
	movl	$.LC106, %esi
.L432:
	movl	$2, %edi
	xorl	%eax, %eax
	call	syslog
	.loc 1 553 0
	movl	$1, %edi
	call	exit
.LVL309:
.L474:
.LBB300:
.LBB192:
.LBB201:
.LBB231:
	.loc 1 934 0
	movzbl	1(%r15), %eax
	cmpb	.LC66+1(%rip), %al
	jne	.L224
.LBE231:
.LBE201:
	movzbl	2(%r15), %eax
	cmpb	.LC66+2(%rip), %al
	jne	.L224
	cmpl	%ebx, %ebp
	jle	.L224
.LVL310:
	.loc 1 937 0
	movslq	%ebx, %rax
	addl	$1, %ebx
.LVL311:
	movq	(%r12,%rax,8), %rax
.LVL312:
	movq	%rax, throttlefile(%rip)
	jmp	.L214
.LVL313:
.L477:
.LBE192:
.LBE300:
.LBB301:
.LBB281:
	.loc 1 1743 0
	call	__errno_location
.LVL314:
	movl	(%rax), %eax
	cmpl	$4, %eax
	je	.L414
	.loc 1 1746 0
	cmpl	$11, %eax
	je	.L365
	.loc 1 1788 0
	cmpl	$22, %eax
	je	.L369
	cmpl	$32, %eax
	.p2align 4,,2
	je	.L369
	cmpl	$104, %eax
	.p2align 4,,2
	je	.L369
	.loc 1 1789 0
	movq	208(%r12), %rdx
	movl	$.LC130, %esi
	movl	$3, %edi
	xorl	%eax, %eax
	call	syslog
.LVL315:
.L369:
	.loc 1 1790 0
	movq	%rbp, %rdi
	movq	%r13, %rsi
	call	clear_connection
.LBE281:
.LBE301:
	.loc 1 795 0
	call	fdwatch_get_next_client_data
	cmpq	$-1, %rax
	movq	%rax, %rbp
.LVL316:
	jne	.L383
.L471:
	.loc 1 811 0
	movq	%r13, %rdi
	call	tmr_run
.LVL317:
	.loc 1 813 0
	movl	got_usr1(%rip), %eax
	testl	%eax, %eax
	je	.L430
	cmpl	$0, terminate(%rip)
	jne	.L396
	.loc 1 816 0
	movq	hs(%rip), %rax
	.loc 1 815 0
	movl	$1, terminate(%rip)
	.loc 1 816 0
	testq	%rax, %rax
	je	.L396
	.loc 1 818 0
	movl	72(%rax), %edi
	cmpl	$-1, %edi
	je	.L386
	.loc 1 819 0
	call	fdwatch_del_fd
	movq	hs(%rip), %rax
.L386:
	.loc 1 820 0
	movl	76(%rax), %edi
	cmpl	$-1, %edi
	je	.L387
	.loc 1 821 0
	call	fdwatch_del_fd
	movq	hs(%rip), %rax
.L387:
	.loc 1 822 0
	movq	%rax, %rdi
	call	httpd_unlisten
	jmp	.L430
.LVL318:
.L396:
	.loc 1 745 0
	movl	num_connects(%rip), %r10d
	testl	%r10d, %r10d
	jg	.L388
	.loc 1 828 0
	call	shut_down
	.loc 1 829 0
	movl	$5, %edi
	movl	$.LC45, %esi
	xorl	%eax, %eax
	call	syslog
	.loc 1 830 0
	call	closelog
	.loc 1 831 0
	xorl	%edi, %edi
	call	exit
.LVL319:
	.p2align 4,,10
	.p2align 3
.L467:
	.loc 1 758 0
	call	__errno_location
.LVL320:
	movl	(%rax), %eax
	cmpl	$11, %eax
	jne	.L476
.LVL321:
.L430:
	.loc 1 822 0
	movl	terminate(%rip), %eax
	jmp	.L417
.LVL322:
.L335:
.LBB302:
.LBB277:
	.loc 1 1716 0
	movq	64(%rbp), %rdx
	.loc 1 1713 0
	movq	8(%rbp), %r12
.LVL323:
	.loc 1 1716 0
	movl	$1000000000, %eax
	cmpq	$-1, %rdx
	je	.L360
	.loc 1 1719 0
	leaq	3(%rdx), %rax
	testq	%rdx, %rdx
	cmovns	%rdx, %rax
	sarq	$2, %rax
.L360:
.LVL324:
	.loc 1 1722 0
	cmpq	$0, 472(%r12)
	jne	.L361
	.loc 1 1727 0
	movq	136(%rbp), %rsi
	.loc 1 1725 0
	movq	128(%rbp), %rdx
	movl	704(%r12), %edi
	subq	%rsi, %rdx
	cmpq	%rdx, %rax
	cmovbe	%rax, %rdx
	addq	712(%r12), %rsi
	call	write
.LVL325:
.L362:
	.loc 1 1743 0
	cmpl	$0, %eax
	jl	.L477
	.loc 1 1746 0
	je	.L365
	.loc 1 1795 0
	movq	224(%rsp), %rdx
	.loc 1 1797 0
	movslq	%eax, %r8
	.loc 1 1795 0
	movq	%rdx, 88(%rbp)
	.loc 1 1797 0
	movq	472(%r12), %rdx
	testq	%rdx, %rdx
	je	.L371
	.loc 1 1800 0
	cmpq	%r8, %rdx
	ja	.L478
	.loc 1 1811 0
	subl	%edx, %eax
.LVL326:
	.loc 1 1812 0
	movq	$0, 472(%r12)
	movslq	%eax, %r8
.LVL327:
.L371:
	.loc 1 1817 0
	movq	8(%rbp), %rdi
	.loc 1 1818 0
	movl	56(%rbp), %r9d
	.loc 1 1816 0
	addq	%r8, 136(%rbp)
	.loc 1 1817 0
	addq	%r8, 200(%rdi)
.LVL328:
	.loc 1 1818 0
	testl	%r9d, %r9d
	jle	.L373
	.loc 1 1819 0
	movq	throttles(%rip), %rsi
	movq	%rbp, %rcx
	xorl	%edx, %edx
.LVL329:
.L374:
	movslq	16(%rcx), %rax
	.loc 1 1818 0
	addl	$1, %edx
.LVL330:
	addq	$4, %rcx
	.loc 1 1819 0
	leaq	(%rax,%rax,2), %rax
	salq	$4, %rax
	addq	%r8, 32(%rsi,%rax)
	.loc 1 1818 0
	cmpl	%edx, %r9d
	jg	.L374
.LVL331:
.L373:
	.loc 1 1822 0
	movq	128(%rbp), %rax
	cmpq	%rax, 136(%rbp)
	jge	.L429
	.loc 1 1830 0
	movq	112(%rbp), %rax
	cmpq	$100, %rax
	jle	.L376
	.loc 1 1831 0
	subq	$100, %rax
	movq	%rax, 112(%rbp)
.L376:
	.loc 1 1834 0
	movq	64(%rbp), %rcx
	cmpq	$-1, %rcx
	je	.L414
	.loc 1 1836 0
	movq	224(%rsp), %r15
.LVL332:
	.loc 1 1837 0
	subq	80(%rbp), %r15
	.loc 1 1839 0
	movq	200(%rdi), %rdx
	.loc 1 1837 0
	cmove	%r14, %r15
.LVL333:
	.loc 1 1839 0
	movq	%rdx, %rax
	sarq	$63, %rdx
	idivq	%r15
	cmpq	%rax, %rcx
	jge	.L414
	.loc 1 1841 0
	movl	$3, 0(%rbp)
	.loc 1 1842 0
	movl	704(%r12), %edi
	call	fdwatch_del_fd
	.loc 1 1846 0
	movq	8(%rbp), %rax
	movq	200(%rax), %rdx
	movq	%rdx, %rax
	sarq	$63, %rdx
	idivq	64(%rbp)
	subl	%r15d, %eax
	.loc 1 1848 0
	cmpq	$0, 96(%rbp)
	.loc 1 1846 0
	movl	%eax, %r15d
.LVL334:
	.loc 1 1848 0
	je	.L378
	.loc 1 1849 0
	movl	$.LC128, %esi
	movl	$3, %edi
	xorl	%eax, %eax
.LVL335:
	call	syslog
.L378:
	.loc 1 1850 0
	testl	%r15d, %r15d
	movl	$500, %ecx
	jle	.L380
	movslq	%r15d, %rcx
	imulq	$1000, %rcx, %rcx
.LVL336:
.L380:
	xorl	%r8d, %r8d
	movq	%rbp, %rdx
	movl	$wakeup_connection, %esi
	movq	%r13, %rdi
	call	tmr_create
	.loc 1 1853 0
	testq	%rax, %rax
	.loc 1 1850 0
	movq	%rax, 96(%rbp)
	.loc 1 1853 0
	jne	.L414
	.loc 1 1855 0
	movl	$2, %edi
	movl	$.LC129, %esi
	call	syslog
	.loc 1 1856 0
	movl	$1, %edi
	call	exit
.LVL337:
	.p2align 4,,10
	.p2align 3
.L336:
.LBE277:
.LBE302:
.LBB303:
.LBB304:
	.loc 1 1873 0
	movq	8(%rbp), %rax
	movl	$4096, %edx
	movq	%rbx, %rsi
	movl	704(%rax), %edi
	call	read
.LVL338:
	.loc 1 1874 0
	cmpl	$0, %eax
	jl	.L479
	.loc 1 1876 0
	jne	.L414
	.p2align 4,,8
	jmp	.L382
.LVL339:
.L472:
.LBE304:
.LBE303:
.LBB306:
.LBB291:
	.loc 1 1621 0
	.p2align 4,,11
	call	__errno_location
.LVL340:
	movl	(%rax), %eax
	cmpl	$11, %eax
	.p2align 4,,3
	je	.L414
	cmpl	$4, %eax
	je	.L414
.L427:
	.loc 1 1637 0
	movq	httpd_err400form(%rip), %r8
	movq	httpd_err400title(%rip), %rdx
	movl	$.LC48, %r9d
	movq	%r9, %rcx
	movl	$400, %esi
.L428:
	.loc 1 1652 0
	movq	%r12, %rdi
	call	httpd_send_err
.LVL341:
.L429:
	.loc 1 1654 0
	movq	%r13, %rsi
	movq	%rbp, %rdi
	call	finish_connection
	jmp	.L414
.LVL342:
.L466:
.LBE291:
.LBE306:
.LBB307:
.LBB309:
	.loc 1 331 0
	movl	no_log(%rip), %r12d
	testl	%r12d, %r12d
	jne	.L322
	cmpq	$0, hs(%rip)
	je	.L322
	.loc 1 335 0
	movq	logfile(%rip), %rax
	testq	%rax, %rax
	je	.L322
.LVL343:
.LBB310:
.LBB311:
	movzbl	(%rax), %edx
	cmpb	.LC95(%rip), %dl
	jne	.L323
.LVL344:
.LBE311:
.LBE310:
	movzbl	1(%rax), %eax
	cmpb	.LC95+1(%rip), %al
	jne	.L323
.LVL345:
.L322:
.LBE309:
.LBE307:
	.loc 1 751 0
	movl	$0, got_hup(%rip)
	jmp	.L321
.LVL346:
.L361:
.LBB313:
.LBB282:
.LBB279:
	.loc 1 1736 0
	movq	368(%r12), %rdx
	.loc 1 1740 0
	movl	704(%r12), %edi
	leaq	176(%rsp), %rsi
	.loc 1 1736 0
	movq	%rdx, 176(%rsp)
	.loc 1 1737 0
	movq	472(%r12), %rdx
	movq	%rdx, 184(%rsp)
	.loc 1 1738 0
	movq	136(%rbp), %rcx
	movq	%rcx, %rdx
	addq	712(%r12), %rdx
	movq	%rdx, 192(%rsp)
	.loc 1 1739 0
	movq	128(%rbp), %rdx
	subq	%rcx, %rdx
	cmpq	%rdx, %rax
	cmova	%rdx, %rax
.LVL347:
	.loc 1 1740 0
	movl	$2, %edx
	.loc 1 1739 0
	movq	%rax, 200(%rsp)
	.loc 1 1740 0
	call	writev
.LVL348:
	jmp	.L362
.LVL349:
.L468:
.LBE279:
.LBE282:
.LBE313:
	.loc 1 768 0
	movq	%r13, %rdi
	call	tmr_run
	movl	terminate(%rip), %eax
	.loc 1 769 0
	jmp	.L417
.LVL350:
.L458:
	.loc 1 560 0
	movq	%rbp, %rdi
	call	chroot
	testl	%eax, %eax
	js	.L480
	.loc 1 571 0
	movq	logfile(%rip), %r13
	testq	%r13, %r13
	je	.L296
.LVL351:
.LBB314:
.LBB315:
	movzbl	0(%r13), %eax
	cmpb	.LC95(%rip), %al
	jne	.L297
.LVL352:
.LBE315:
.LBE314:
	movzbl	1(%r13), %eax
	cmpb	.LC95+1(%rip), %al
	jne	.L297
.LVL353:
.L296:
	.loc 1 589 0
	movq	%rbp, %rdi
	.loc 1 587 0
	movw	$47, 10288(%rsp)
	.loc 1 589 0
	call	chdir
	testl	%eax, %eax
	jns	.L294
	.loc 1 591 0
	movl	$.LC110, %esi
	movl	$2, %edi
	xorl	%eax, %eax
	call	syslog
	.loc 1 592 0
	movl	$.LC111, %edi
	call	perror
	.loc 1 593 0
	movl	$1, %edi
	call	exit
.LVL354:
.L476:
	.loc 1 758 0
	cmpl	$4, %eax
	je	.L430
	.loc 1 760 0
	movl	$3, %edi
	movl	$.LC126, %esi
	xorl	%eax, %eax
	call	syslog
	.loc 1 761 0
	movl	$1, %edi
	call	exit
.LVL355:
.L365:
.LBB316:
.LBB276:
	.loc 1 1759 0
	addq	$100, 112(%rbp)
	.loc 1 1760 0
	movl	$3, 0(%rbp)
	.loc 1 1761 0
	movl	704(%r12), %edi
	call	fdwatch_del_fd
	.loc 1 1763 0
	cmpq	$0, 96(%rbp)
	je	.L368
	.loc 1 1764 0
	movl	$.LC128, %esi
	movl	$3, %edi
	xorl	%eax, %eax
	call	syslog
.L368:
	.loc 1 1765 0
	movq	112(%rbp), %rcx
	jmp	.L380
.LVL356:
.L225:
.LBE276:
.LBE316:
.LBB317:
.LBB252:
.LBB234:
.LBB235:
	.loc 1 944 0
	movzbl	.LC68(%rip), %eax
	cmpl	%eax, %edx
	jne	.L226
.LVL357:
	movzbl	1(%r15), %eax
	cmpb	.LC68+1(%rip), %al
	jne	.L226
.LBE235:
.LBE234:
	movzbl	2(%r15), %eax
	cmpb	.LC68+2(%rip), %al
	jne	.L226
	cmpl	%ebx, %ebp
	jle	.L226
.LVL358:
	.loc 1 947 0
	movslq	%ebx, %rax
	addl	$1, %ebx
.LVL359:
	movq	(%r12,%rax,8), %rax
.LVL360:
	movq	%rax, logfile(%rip)
	jmp	.L214
.LVL361:
.L479:
.LBE252:
.LBE317:
.LBB318:
.LBB305:
	.loc 1 1874 0
	call	__errno_location
.LVL362:
	movl	(%rax), %eax
	cmpl	$11, %eax
	je	.L414
	cmpl	$4, %eax
	je	.L414
.L382:
	.loc 1 1877 0
	movq	%r13, %rsi
	movq	%rbp, %rdi
	call	really_clear_connection
	jmp	.L414
.LVL363:
.L226:
.LBE305:
.LBE318:
.LBB319:
.LBB191:
.LBB199:
.LBB200:
	.loc 1 949 0
	movzbl	.LC69(%rip), %eax
	cmpl	%eax, %edx
	jne	.L227
.LVL364:
	movzbl	1(%r15), %eax
	cmpb	.LC69+1(%rip), %al
	jne	.L227
.LBE200:
.LBE199:
	movzbl	2(%r15), %eax
	cmpb	.LC69+2(%rip), %al
	jne	.L227
	.loc 1 950 0
	movl	$1, do_vhost(%rip)
	jmp	.L214
.L227:
.LVL365:
.LBB198:
	.loc 1 951 0
	movl	$.LC70, %esi
	movq	%r15, %rdi
	movl	%edx, 104(%rsp)
	call	strcmp
.LBE198:
	testl	%eax, %eax
	movl	104(%rsp), %edx
	je	.L481
.LVL366:
.LBB196:
.LBB197:
	.loc 1 953 0
	movzbl	.LC71(%rip), %eax
	cmpl	%eax, %edx
	jne	.L229
.LVL367:
	movzbl	1(%r15), %eax
	cmpb	.LC71+1(%rip), %al
	jne	.L229
.LBE197:
.LBE196:
	movzbl	2(%r15), %eax
	cmpb	.LC71+2(%rip), %al
	jne	.L229
	.loc 1 954 0
	movl	$1, do_global_passwd(%rip)
	jmp	.L214
.LVL368:
.L455:
.LBE191:
.LBE319:
	.loc 1 464 0
	movl	$.LC101, %esi
	movl	$2, %edi
	xorl	%eax, %eax
	call	syslog
	.loc 1 465 0
	movl	$.LC102, %edi
	call	perror
	.loc 1 466 0
	movl	$1, %edi
	call	exit
.LVL369:
.L456:
.LBB320:
	.loc 1 539 0
	movq	pidfile(%rip), %rdx
	movl	$2, %edi
	movl	$.LC84, %esi
	xorl	%eax, %eax
.LVL370:
	call	syslog
	.loc 1 540 0
	movl	$1, %edi
	call	exit
.LVL371:
.L460:
.LBE320:
	.loc 1 651 0
	movl	$2, %edi
	movl	$.LC114, %esi
	call	syslog
	.loc 1 652 0
	movl	$1, %edi
	call	exit
.L459:
	.loc 1 602 0
	movl	$.LC112, %esi
	movl	$2, %edi
	xorl	%eax, %eax
	call	syslog
	.loc 1 603 0
	movl	$.LC113, %edi
	call	perror
	.loc 1 604 0
	movl	$1, %edi
	call	exit
.LVL372:
.L297:
	.loc 1 573 0
	xorl	%eax, %eax
	orq	$-1, %rcx
	movq	%rbp, %rdi
	repnz scasb
	movq	%rbp, %rsi
	movq	%r13, %rdi
	notq	%rcx
	leaq	-1(%rcx), %rdx
	movq	%rcx, 96(%rsp)
	call	strncmp
	testl	%eax, %eax
	movq	96(%rsp), %rcx
	jne	.L298
	.loc 1 575 0
	leaq	-2(%r13,%rcx), %rsi
	movq	%r13, %rdi
	call	strcpy
	jmp	.L296
.LVL373:
.L323:
.LBB321:
.LBB308:
	.loc 1 337 0
	xorl	%eax, %eax
	movl	$.LC124, %esi
	movl	$5, %edi
	call	syslog
.LVL374:
	.loc 1 338 0
	movq	logfile(%rip), %rdi
	movl	$.LC96, %esi
	call	fopen
	.loc 1 339 0
	movq	logfile(%rip), %rdi
	movl	$384, %esi
	.loc 1 338 0
	movq	%rax, %rbp
.LVL375:
	.loc 1 339 0
	call	chmod
.LVL376:
	.loc 1 340 0
	testl	%eax, %eax
	jne	.L394
	testq	%rbp, %rbp
	je	.L394
	.loc 1 345 0
	movq	%rbp, %rdi
	call	fileno
.LVL377:
	movl	$1, %edx
	movl	%eax, %edi
	movl	$2, %esi
	xorl	%eax, %eax
	call	fcntl
	.loc 1 346 0
	movq	hs(%rip), %rdi
	movq	%rbp, %rsi
	call	httpd_set_logfp
	jmp	.L322
.LVL378:
.L463:
.LBE308:
.LBE321:
	.loc 1 673 0
	movl	$2, %edi
	movl	$.LC117, %esi
	call	syslog
	.loc 1 674 0
	movl	$1, %edi
	call	exit
.LVL379:
.L469:
	.loc 1 776 0
	movq	hs(%rip), %rax
	movq	%r13, %rdi
	movl	76(%rax), %esi
	call	handle_newconnect
	testl	%eax, %eax
	je	.L332
	jmp	.L430
.LVL380:
.L344:
.LBB322:
.LBB286:
	.loc 1 1659 0
	movq	%r13, %rsi
	movq	%r12, %rdi
	call	httpd_start_request
	testl	%eax, %eax
	js	.L429
	.loc 1 1667 0
	cmpl	$0, 528(%r12)
	jne	.L482
	.loc 1 1672 0
	movq	192(%r12), %rax
	.loc 1 1673 0
	movl	$0, %edx
	testq	%rax, %rax
	cmovs	%rdx, %rax
	movq	%rax, 128(%rbp)
.L353:
	.loc 1 1678 0
	cmpq	$0, 712(%r12)
	je	.L483
	.loc 1 1688 0
	movq	128(%rbp), %rdi
	cmpq	%rdi, 136(%rbp)
	jge	.L429
	.loc 1 1697 0
	movq	224(%rsp), %rax
	.loc 1 1696 0
	movl	$2, 0(%rbp)
	.loc 1 1701 0
	movl	704(%r12), %edi
	.loc 1 1698 0
	movq	$0, 112(%rbp)
	.loc 1 1697 0
	movq	%rax, 80(%rbp)
	.loc 1 1701 0
	call	fdwatch_del_fd
	.loc 1 1702 0
	movl	704(%r12), %edi
	movl	$1, %edx
	movq	%rbp, %rsi
	call	fdwatch_add_fd
	jmp	.L414
.LVL381:
.L470:
.LBE286:
.LBE322:
	.loc 1 786 0
	movq	hs(%rip), %rax
	movq	%r13, %rdi
	movl	72(%rax), %esi
	call	handle_newconnect
	testl	%eax, %eax
	je	.L414
	jmp	.L430
.LVL382:
.L394:
.LBB323:
.LBB312:
	.loc 1 342 0
	movq	logfile(%rip), %rdx
	movl	$.LC125, %esi
	movl	$2, %edi
	xorl	%eax, %eax
.LVL383:
	call	syslog
	jmp	.L322
.LVL384:
.L481:
.LBE312:
.LBE323:
.LBB324:
.LBB253:
	.loc 1 952 0
	movl	$0, do_vhost(%rip)
	jmp	.L214
.LVL385:
.L393:
.LBE253:
.LBE324:
	.loc 1 433 0
	movq	logfile(%rip), %rdx
	movl	$.LC84, %esi
	movl	$2, %edi
	xorl	%eax, %eax
.LVL386:
	call	syslog
	.loc 1 434 0
	movq	logfile(%rip), %rdi
	call	perror
	.loc 1 435 0
	movl	$1, %edi
	call	exit
.L454:
	.loc 1 448 0
	movq	%r12, %rdi
	call	fileno
	movl	%r14d, %edx
	movl	%r15d, %esi
	movl	%eax, %edi
	call	fchown
	testl	%eax, %eax
	jns	.L276
	.loc 1 450 0
	movl	$.LC99, %esi
	movl	$4, %edi
	xorl	%eax, %eax
	call	syslog
	.loc 1 451 0
	movl	$.LC100, %edi
	call	perror
	jmp	.L276
.LVL387:
.L465:
	.loc 1 712 0
	movl	$.LC122, %esi
	movl	$4, %edi
	xorl	%eax, %eax
	call	syslog
	jmp	.L309
.LVL388:
.L482:
.LBB325:
.LBB292:
	.loc 1 1669 0
	movq	536(%r12), %rax
	movq	%rax, 136(%rbp)
	.loc 1 1670 0
	movq	544(%r12), %rax
	addq	$1, %rax
	movq	%rax, 128(%rbp)
	jmp	.L353
.LVL389:
.L480:
.LBE292:
.LBE325:
	.loc 1 562 0
	movl	$.LC107, %esi
	movl	$2, %edi
	xorl	%eax, %eax
	call	syslog
	.loc 1 563 0
	movl	$.LC13, %edi
	call	perror
	.loc 1 564 0
	movl	$1, %edi
	call	exit
.LVL390:
.L229:
.LBB326:
.LBB190:
.LBB195:
	.loc 1 955 0
	movl	$.LC72, %esi
	movq	%r15, %rdi
	movl	%edx, 104(%rsp)
	call	strcmp
.LBE195:
	testl	%eax, %eax
	movl	104(%rsp), %edx
	jne	.L230
	.loc 1 956 0
	movl	$0, do_global_passwd(%rip)
	jmp	.L214
.LVL391:
.L478:
.LBE190:
.LBE326:
.LBB327:
.LBB283:
.LBB280:
	.loc 1 1804 0
	movq	368(%r12), %rdi
	subl	%eax, %edx
.LVL392:
	movslq	%edx, %r15
	movq	%r15, %rdx
	leaq	(%rdi,%r8), %rsi
	call	memmove
.LVL393:
	.loc 1 1805 0
	movq	%r15, 472(%r12)
.LVL394:
	xorl	%r8d, %r8d
	jmp	.L371
.LVL395:
.L314:
.LBE280:
.LBE283:
.LBE327:
	.loc 1 721 0
	movl	$.LC123, %esi
	jmp	.L432
.LVL396:
.L207:
.LBB328:
.LBB254:
	.loc 1 883 0
	movl	$1, %ebx
.LVL397:
	jmp	.L236
.LVL398:
.L445:
	movq	264(%rsp), %rdi
	jmp	.L248
.LVL399:
.L475:
.LBE254:
.LBE328:
	.loc 1 409 0
	movq	user(%rip), %rdx
	movl	$.LC92, %esi
	movl	$2, %edi
	call	syslog
.LVL400:
	.loc 1 410 0
	movq	stderr(%rip), %rdi
	movq	user(%rip), %rcx
	movl	$.LC93, %esi
	movq	argv0(%rip), %rdx
	xorl	%eax, %eax
	call	fprintf
	.loc 1 411 0
	movl	$1, %edi
	call	exit
.LVL401:
.L462:
	.loc 1 665 0
	movl	$2, %edi
	movl	$.LC116, %esi
	call	syslog
	.loc 1 666 0
	movl	$1, %edi
	call	exit
.LVL402:
.L298:
	.loc 1 583 0
	xorl	%eax, %eax
	movl	$.LC108, %esi
	movl	$4, %edi
	call	syslog
	.loc 1 584 0
	movq	argv0(%rip), %rdx
	movq	stderr(%rip), %rdi
	movl	$.LC109, %esi
	xorl	%eax, %eax
	call	fprintf
	jmp	.L296
.LVL403:
.L461:
	.loc 1 657 0
	movl	$2, %edi
	movl	$.LC115, %esi
	call	syslog
	.loc 1 658 0
	movl	$1, %edi
	call	exit
.LVL404:
.L346:
.LBB329:
.LBB285:
	.loc 1 1652 0
	movq	208(%r12), %r9
	movq	httpd_err503form(%rip), %r8
	movl	$.LC48, %ecx
	movq	httpd_err503title(%rip), %rdx
	movl	$503, %esi
	jmp	.L428
.LVL405:
.L464:
.LBE285:
.LBE329:
	.loc 1 699 0
	movl	$.LC120, %esi
	movl	$4, %edi
	xorl	%eax, %eax
	call	syslog
	jmp	.L312
.LVL406:
.L483:
.LBB330:
.LBB293:
.LBB290:
	.loc 1 1682 0
	movl	56(%rbp), %edi
	.loc 1 1683 0
	movq	throttles(%rip), %rcx
	movq	%rbp, %rdx
	xorl	%eax, %eax
	jmp	.L356
.LVL407:
.L357:
	movslq	12(%rdx), %rsi
	movq	200(%r12), %r8
	.loc 1 1682 0
	addl	$1, %eax
.LVL408:
	.loc 1 1683 0
	imulq	$48, %rsi, %rsi
	addq	%r8, 32(%rcx,%rsi)
.LVL409:
.L356:
	.loc 1 1682 0
	addq	$4, %rdx
	cmpl	%edi, %eax
	jl	.L357
	.loc 1 1684 0
	movq	200(%r12), %rax
.LVL410:
	.loc 1 1685 0
	movq	%r13, %rsi
	movq	%rbp, %rdi
	.loc 1 1684 0
	movq	%rax, 136(%rbp)
	.loc 1 1685 0
	call	finish_connection
	jmp	.L414
.LVL411:
.L438:
.LBE290:
.LBE293:
.LBE330:
.LBB331:
.LBB189:
	.loc 1 887 0
	movl	$.LC55, %edi
	call	puts
	.loc 1 888 0
	xorl	%edi, %edi
	call	exit
.LVL412:
.L447:
.LBE189:
.LBE331:
.LBB332:
.LBB268:
	.loc 1 1382 0
	movq	%r14, %rdx
	movl	$.LC84, %esi
	movl	$2, %edi
	xorl	%eax, %eax
.LVL413:
	call	syslog
	.loc 1 1383 0
	movq	%r14, %rdi
	call	perror
	.loc 1 1384 0
	movl	$1, %edi
	call	exit
.LVL414:
.L269:
	.loc 1 1443 0
	movl	$.LC90, %esi
	movl	$2, %edi
	xorl	%eax, %eax
	call	syslog
	.loc 1 1444 0
	movq	argv0(%rip), %rdx
	movl	$.LC91, %esi
	jmp	.L431
.LVL415:
.L446:
.LBE268:
.LBE332:
.LBB333:
.LBB260:
	.loc 1 1304 0
	movq	hostname(%rip), %rdx
	movl	$2, %edi
	mov	%r8d, %r8d
	movl	$128, %ecx
	movl	$.LC81, %esi
	xorl	%eax, %eax
	call	syslog
	.loc 1 1308 0
	movl	$1, %edi
	call	exit
.LVL416:
.L441:
	.loc 1 1254 0
	movl	%eax, %edi
	call	gai_strerror
.LVL417:
	movq	hostname(%rip), %rdx
	movq	%rax, %rcx
	movl	$.LC79, %esi
	movl	$2, %edi
	xorl	%eax, %eax
	call	syslog
	.loc 1 1257 0
	movl	%ebp, %edi
	call	gai_strerror
	movq	stderr(%rip), %rdi
	movq	hostname(%rip), %rcx
	movq	%rax, %r8
	movq	argv0(%rip), %rdx
	movl	$.LC80, %esi
	xorl	%eax, %eax
	call	fprintf
	.loc 1 1260 0
	movl	$1, %edi
	call	exit
.LVL418:
.L444:
	.loc 1 1287 0
	movq	hostname(%rip), %rdx
	movl	$2, %edi
	mov	%r8d, %r8d
	movl	$128, %ecx
	movl	$.LC81, %esi
.LVL419:
	call	syslog
.LVL420:
	.loc 1 1291 0
	movl	$1, %edi
	call	exit
.LVL421:
.L230:
.LBE260:
.LBE333:
.LBB334:
.LBB255:
.LBB236:
.LBB237:
	.loc 1 957 0
	movzbl	.LC73(%rip), %eax
	cmpl	%eax, %edx
	jne	.L231
.LVL422:
	movzbl	1(%r15), %eax
	cmpb	.LC73+1(%rip), %al
	jne	.L231
.LBE237:
.LBE236:
	movzbl	2(%r15), %eax
	cmpb	.LC73+2(%rip), %al
	jne	.L231
	cmpl	%ebx, %ebp
	jle	.L231
.LVL423:
	.loc 1 960 0
	movslq	%ebx, %rax
	addl	$1, %ebx
.LVL424:
	movq	(%r12,%rax,8), %rax
.LVL425:
	movq	%rax, pidfile(%rip)
	jmp	.L214
.LVL426:
.L231:
.LBB238:
.LBB239:
	.loc 1 962 0
	movzbl	.LC74(%rip), %eax
	cmpl	%eax, %edx
	jne	.L232
.LVL427:
	movzbl	1(%r15), %eax
	cmpb	.LC74+1(%rip), %al
	jne	.L232
.LBE239:
.LBE238:
	movzbl	2(%r15), %eax
	cmpb	.LC74+2(%rip), %al
	jne	.L232
	cmpl	%ebx, %ebp
	jle	.L232
.LVL428:
	.loc 1 965 0
	movslq	%ebx, %rax
	addl	$1, %ebx
.LVL429:
	movq	(%r12,%rax,8), %rax
.LVL430:
	movq	%rax, charset(%rip)
	jmp	.L214
.LVL431:
.L232:
.LBB240:
.LBB241:
	.loc 1 967 0
	movzbl	.LC75(%rip), %eax
	cmpl	%eax, %edx
	jne	.L233
.LVL432:
	movzbl	1(%r15), %eax
	cmpb	.LC75+1(%rip), %al
	jne	.L233
.LBE241:
.LBE240:
	movzbl	2(%r15), %eax
	cmpb	.LC75+2(%rip), %al
	jne	.L233
	cmpl	%ebx, %ebp
	jle	.L233
.LVL433:
	.loc 1 970 0
	movslq	%ebx, %rax
	addl	$1, %ebx
.LVL434:
	movq	(%r12,%rax,8), %rax
.LVL435:
	movq	%rax, p3p(%rip)
	jmp	.L214
.LVL436:
.L233:
.LBB242:
.LBB243:
	.loc 1 972 0
	movzbl	.LC76(%rip), %eax
	cmpl	%eax, %edx
	jne	.L234
.LVL437:
	movzbl	1(%r15), %eax
	cmpb	.LC76+1(%rip), %al
	jne	.L234
.LBE243:
.LBE242:
	movzbl	2(%r15), %eax
	cmpb	.LC76+2(%rip), %al
	jne	.L234
	cmpl	%ebx, %ebp
	jg	.L484
.L234:
.LVL438:
.LBB244:
.LBB245:
	.loc 1 977 0
	movzbl	.LC77(%rip), %eax
	cmpl	%eax, %edx
	jne	.L235
.LVL439:
	movzbl	1(%r15), %eax
	cmpb	.LC77+1(%rip), %al
	jne	.L235
.LBE245:
.LBE244:
	movzbl	2(%r15), %eax
	cmpb	.LC77+2(%rip), %al
	jne	.L235
	.loc 1 978 0
	movl	$1, debug(%rip)
	jmp	.L214
.LVL440:
.L484:
	.loc 2 286 0
	movslq	%ebx, %rax
.LBB246:
.LBB247:
	movl	$10, %edx
	xorl	%esi, %esi
	movq	(%r12,%rax,8), %rdi
.LBE247:
.LBE246:
	.loc 1 975 0
	addl	$1, %ebx
.LVL441:
.LBB249:
.LBB248:
	.loc 2 286 0
	call	strtol
.LVL442:
	.loc 1 975 0
	movl	%eax, max_age(%rip)
	jmp	.L214
.LVL443:
.L235:
.LBE248:
.LBE249:
	.loc 1 980 0
	call	usage
	.p2align 4,,2
	jmp	.L214
.LBE255:
.LBE334:
	.cfi_endproc
.LFE47:
	.size	main, .-main
.globl terminate
	.bss
	.align 4
	.type	terminate, @object
	.size	terminate, 4
terminate:
	.zero	4
	.local	hs
	.comm	hs,8,8
	.local	argv0
	.comm	argv0,8,8
	.local	debug
	.comm	debug,4,4
	.local	port
	.comm	port,2,2
	.local	dir
	.comm	dir,8,8
	.local	data_dir
	.comm	data_dir,8,8
	.local	do_chroot
	.comm	do_chroot,4,4
	.local	no_log
	.comm	no_log,4,4
	.local	no_symlink_check
	.comm	no_symlink_check,4,4
	.local	do_vhost
	.comm	do_vhost,4,4
	.local	do_global_passwd
	.comm	do_global_passwd,4,4
	.local	cgi_pattern
	.comm	cgi_pattern,8,8
	.local	cgi_limit
	.comm	cgi_limit,4,4
	.local	url_pattern
	.comm	url_pattern,8,8
	.local	no_empty_referers
	.comm	no_empty_referers,4,4
	.local	local_pattern
	.comm	local_pattern,8,8
	.local	logfile
	.comm	logfile,8,8
	.local	throttlefile
	.comm	throttlefile,8,8
	.local	hostname
	.comm	hostname,8,8
	.local	pidfile
	.comm	pidfile,8,8
	.local	user
	.comm	user,8,8
	.local	charset
	.comm	charset,8,8
	.local	p3p
	.comm	p3p,8,8
	.local	max_age
	.comm	max_age,4,4
	.local	throttles
	.comm	throttles,8,8
	.local	numthrottles
	.comm	numthrottles,4,4
	.local	maxthrottles
	.comm	maxthrottles,4,4
	.local	connects
	.comm	connects,8,8
	.local	num_connects
	.comm	num_connects,4,4
	.local	max_connects
	.comm	max_connects,4,4
	.local	first_free_connect
	.comm	first_free_connect,4,4
	.local	httpd_conn_count
	.comm	httpd_conn_count,4,4
	.local	got_hup
	.comm	got_hup,4,4
	.local	got_usr1
	.comm	got_usr1,4,4
	.local	watchdog_flag
	.comm	watchdog_flag,4,4
	.comm	start_time,8,8
	.comm	stats_time,8,8
	.comm	stats_connections,8,8
	.comm	stats_bytes,8,8
	.comm	stats_simultaneous,4,4
	.text
.Letext0:
	.section	.note.GNU-stack,"",@progbits
