	.file	"thttpd.c"
	.text
.Ltext0:
	.section	.text.unlikely,"ax",@progbits
.LCOLDB0:
	.text
.LHOTB0:
	.p2align 4,,15
	.section	.text.unlikely
.Ltext_cold0:
	.text
	.type	handle_hup, @function
handle_hup:
.LASANPC42:
.LFB42:
	.file 1 "thttpd.c"
	.loc 1 238 0
	.cfi_startproc
.LVL0:
	.loc 1 247 0
	movl	$1, got_hup(%rip)
	ret
	.cfi_endproc
.LFE42:
	.size	handle_hup, .-handle_hup
	.section	.text.unlikely
.LCOLDE0:
	.text
.LHOTE0:
	.section	.rodata
	.align 32
.LC1:
	.string	"throttle #%d '%.80s' rate %ld greatly exceeding limit %ld; %d sending"
	.zero	58
	.align 32
.LC2:
	.string	"throttle #%d '%.80s' rate %ld exceeding limit %ld; %d sending"
	.zero	34
	.align 32
.LC3:
	.string	"throttle #%d '%.80s' rate %ld lower than minimum %ld; %d sending"
	.zero	63
	.section	.text.unlikely
.LCOLDB4:
	.text
.LHOTB4:
	.p2align 4,,15
	.type	update_throttles, @function
update_throttles:
.LASANPC63:
.LFB63:
	.loc 1 1933 0
	.cfi_startproc
	pushq	%r13
	.cfi_def_cfa_offset 16
	.cfi_offset 13, -16
	pushq	%r12
	.cfi_def_cfa_offset 24
	.cfi_offset 12, -24
	.loc 1 1944 0
	movabsq	$6148914691236517206, %r12
	.loc 1 1933 0
	pushq	%rbp
	.cfi_def_cfa_offset 32
	.cfi_offset 6, -32
	pushq	%rbx
	.cfi_def_cfa_offset 40
	.cfi_offset 3, -40
	.loc 1 1942 0
	xorl	%ebp, %ebp
	xorl	%ebx, %ebx
	.loc 1 1933 0
	subq	$8, %rsp
	.cfi_def_cfa_offset 48
	.loc 1 1942 0
	movl	numthrottles(%rip), %r11d
	testl	%r11d, %r11d
	jg	.L67
	jmp	.L22
	.p2align 4,,10
	.p2align 3
.L18:
	.loc 1 1942 0 is_stmt 0 discriminator 2
	addl	$1, %ebx
	addq	$48, %rbp
	cmpl	%ebx, numthrottles(%rip)
	jle	.L22
.L67:
	.loc 1 1944 0 is_stmt 1
	movq	%rbp, %rcx
	addq	throttles(%rip), %rcx
	leaq	24(%rcx), %rdi
	movq	%rdi, %rax
	shrq	$3, %rax
	cmpb	$0, 2147450880(%rax)
	jne	.L86
	movq	24(%rcx), %rax
	leaq	32(%rcx), %rdi
	leaq	(%rax,%rax), %rsi
	movq	%rdi, %rax
	shrq	$3, %rax
	cmpb	$0, 2147450880(%rax)
	jne	.L87
	movq	32(%rcx), %rax
	.loc 1 1947 0
	leaq	8(%rcx), %rdi
	.loc 1 1945 0
	movq	$0, 32(%rcx)
	.loc 1 1944 0
	movq	%rax, %rdx
	shrq	$63, %rdx
	addq	%rdx, %rax
	sarq	%rax
	addq	%rax, %rsi
	movq	%rsi, %rax
	sarq	$63, %rsi
	imulq	%r12
	.loc 1 1947 0
	movq	%rdi, %rax
	shrq	$3, %rax
	.loc 1 1944 0
	subq	%rsi, %rdx
	.loc 1 1947 0
	cmpb	$0, 2147450880(%rax)
	.loc 1 1944 0
	movq	%rdx, %r8
	movq	%rdx, 24(%rcx)
	.loc 1 1947 0
	jne	.L88
	movq	8(%rcx), %r9
	cmpq	%r9, %rdx
	jle	.L9
	.loc 1 1947 0 is_stmt 0 discriminator 1
	leaq	40(%rcx), %rdi
	movq	%rdi, %rax
	shrq	$3, %rax
	movzbl	2147450880(%rax), %eax
	testb	%al, %al
	je	.L10
	movq	%rdi, %rdx
	andl	$7, %edx
	addl	$3, %edx
	cmpb	%al, %dl
	jge	.L89
.L10:
	movl	40(%rcx), %eax
	testl	%eax, %eax
	je	.L9
	.loc 1 1949 0 is_stmt 1
	leaq	(%r9,%r9), %rdx
	cmpq	%rdx, %r8
	.loc 1 1950 0
	movq	%rcx, %rdx
	.loc 1 1949 0
	jle	.L11
	.loc 1 1950 0
	shrq	$3, %rdx
	cmpb	$0, 2147450880(%rdx)
	jne	.L90
	subq	$8, %rsp
	.cfi_def_cfa_offset 56
	movq	(%rcx), %rcx
	movl	$5, %edi
	pushq	%rax
	.cfi_def_cfa_offset 64
	movl	%ebx, %edx
	xorl	%eax, %eax
	movl	$.LC1, %esi
	call	syslog
	movq	%rbp, %rcx
	addq	throttles(%rip), %rcx
	popq	%r9
	.cfi_def_cfa_offset 56
	popq	%r10
	.cfi_def_cfa_offset 48
	leaq	24(%rcx), %rdi
	movq	%rdi, %rax
	shrq	$3, %rax
	cmpb	$0, 2147450880(%rax)
	jne	.L91
.L15:
	movq	24(%rcx), %r8
.L9:
	.loc 1 1954 0
	leaq	16(%rcx), %rdi
	movq	%rdi, %rax
	shrq	$3, %rax
	cmpb	$0, 2147450880(%rax)
	jne	.L92
	movq	16(%rcx), %r9
	cmpq	%r8, %r9
	jle	.L18
	.loc 1 1954 0 is_stmt 0 discriminator 1
	leaq	40(%rcx), %rdi
	movq	%rdi, %rax
	shrq	$3, %rax
	movzbl	2147450880(%rax), %eax
	testb	%al, %al
	je	.L19
	movq	%rdi, %rdx
	andl	$7, %edx
	addl	$3, %edx
	cmpb	%al, %dl
	jge	.L93
.L19:
	movl	40(%rcx), %eax
	testl	%eax, %eax
	je	.L18
	.loc 1 1956 0 is_stmt 1
	movq	%rcx, %rdx
	shrq	$3, %rdx
	cmpb	$0, 2147450880(%rdx)
	jne	.L94
	subq	$8, %rsp
	.cfi_def_cfa_offset 56
	movq	(%rcx), %rcx
	movl	%ebx, %edx
	pushq	%rax
	.cfi_def_cfa_offset 64
	movl	$.LC3, %esi
	xorl	%eax, %eax
	movl	$5, %edi
	.loc 1 1942 0
	addl	$1, %ebx
	addq	$48, %rbp
	.loc 1 1956 0
	call	syslog
	.loc 1 1942 0
	cmpl	%ebx, numthrottles(%rip)
	.loc 1 1956 0
	popq	%rax
	.cfi_def_cfa_offset 56
	popq	%rdx
	.cfi_def_cfa_offset 48
	.loc 1 1942 0
	jg	.L67
	.p2align 4,,10
	.p2align 3
.L22:
	.loc 1 1963 0
	movl	max_connects(%rip), %eax
	testl	%eax, %eax
	jle	.L2
	subl	$1, %eax
	movq	connects(%rip), %r9
	leaq	(%rax,%rax,8), %rax
	salq	$4, %rax
	leaq	64(%r9), %rdi
	leaq	208(%r9,%rax), %rbx
	jmp	.L25
	.p2align 4,,10
	.p2align 3
.L28:
	addq	$144, %rdi
	addq	$144, %r9
	cmpq	%rbx, %rdi
	je	.L2
.L25:
	.loc 1 1966 0
	movq	%r9, %rax
	shrq	$3, %rax
	movzbl	2147450880(%rax), %eax
	testb	%al, %al
	je	.L23
	movq	%r9, %rdx
	andl	$7, %edx
	addl	$3, %edx
	cmpb	%al, %dl
	jge	.L95
.L23:
	movl	(%r9), %eax
	subl	$2, %eax
	cmpl	$1, %eax
	ja	.L28
	.loc 1 1968 0
	movq	%rdi, %rax
	shrq	$3, %rax
	cmpb	$0, 2147450880(%rax)
	jne	.L96
	leaq	-8(%rdi), %rax
	movq	$-1, (%rdi)
	.loc 1 1969 0
	movq	%rax, %rdx
	shrq	$3, %rdx
	movzbl	2147450880(%rdx), %edx
	testb	%dl, %dl
	je	.L27
	movq	%rax, %rcx
	andl	$7, %ecx
	addl	$3, %ecx
	cmpb	%dl, %cl
	jge	.L97
.L27:
	movl	-8(%rdi), %eax
	testl	%eax, %eax
	jle	.L28
	subl	$1, %eax
	.loc 1 1976 0
	movq	%rdi, %r8
	movq	throttles(%rip), %r11
	leaq	-48(%rdi), %rsi
	leaq	20(%r9,%rax,4), %r10
	.loc 1 1969 0
	movq	$-1, %rbp
	.loc 1 1976 0
	shrq	$3, %r8
	jmp	.L37
	.p2align 4,,10
	.p2align 3
.L32:
	cmpq	%rax, %rbp
	cmovle	%rbp, %rax
	cmpb	$0, 2147450880(%r8)
	jne	.L98
.L35:
	addq	$4, %rsi
	movq	%rax, (%rdi)
	.loc 1 1969 0
	cmpq	%r10, %rsi
	je	.L28
	cmpb	$0, 2147450880(%r8)
	jne	.L99
	movq	(%rdi), %rbp
.L37:
	.loc 1 1971 0
	movq	%rsi, %rax
	shrq	$3, %rax
	movzbl	2147450880(%rax), %eax
	testb	%al, %al
	je	.L29
	movq	%rsi, %rdx
	andl	$7, %edx
	addl	$3, %edx
	cmpb	%al, %dl
	jge	.L100
.L29:
	.loc 1 1972 0
	movslq	(%rsi), %rax
	leaq	(%rax,%rax,2), %rcx
	salq	$4, %rcx
	addq	%r11, %rcx
	leaq	8(%rcx), %rax
	movq	%rax, %rdx
	shrq	$3, %rdx
	cmpb	$0, 2147450880(%rdx)
	jne	.L101
	leaq	40(%rcx), %rdx
	movq	8(%rcx), %rax
	movq	%rdx, %r12
	shrq	$3, %r12
	movzbl	2147450880(%r12), %r12d
	testb	%r12b, %r12b
	je	.L31
	movq	%rdx, %r13
	andl	$7, %r13d
	addl	$3, %r13d
	cmpb	%r12b, %r13b
	jge	.L102
.L31:
	movslq	40(%rcx), %rcx
	cqto
	idivq	%rcx
	.loc 1 1973 0
	cmpq	$-1, %rbp
	jne	.L32
	.loc 1 1974 0
	cmpb	$0, 2147450880(%r8)
	je	.L35
	call	__asan_report_store8
	.p2align 4,,10
	.p2align 3
.L11:
	.loc 1 1952 0
	shrq	$3, %rdx
	cmpb	$0, 2147450880(%rdx)
	jne	.L103
	subq	$8, %rsp
	.cfi_def_cfa_offset 56
	movq	(%rcx), %rcx
	movl	$.LC2, %esi
	pushq	%rax
	.cfi_def_cfa_offset 64
	movl	$6, %edi
	xorl	%eax, %eax
	movl	%ebx, %edx
	call	syslog
	movq	%rbp, %rcx
	addq	throttles(%rip), %rcx
	popq	%rsi
	.cfi_def_cfa_offset 56
	popq	%r8
	.cfi_def_cfa_offset 48
	leaq	24(%rcx), %rdi
	movq	%rdi, %rax
	shrq	$3, %rax
	cmpb	$0, 2147450880(%rax)
	je	.L15
	call	__asan_report_load8
	.p2align 4,,10
	.p2align 3
.L2:
	.loc 1 1980 0
	addq	$8, %rsp
	.cfi_remember_state
	.cfi_def_cfa_offset 40
	popq	%rbx
	.cfi_def_cfa_offset 32
	popq	%rbp
	.cfi_def_cfa_offset 24
	popq	%r12
	.cfi_def_cfa_offset 16
	popq	%r13
	.cfi_def_cfa_offset 8
	ret
.L99:
	.cfi_restore_state
	call	__asan_report_load8
.L98:
	.loc 1 1976 0
	call	__asan_report_store8
.L102:
	.loc 1 1972 0
	movq	%rdx, %rdi
	call	__asan_report_load4
.L101:
	movq	%rax, %rdi
	call	__asan_report_load8
.L100:
	.loc 1 1971 0
	movq	%rsi, %rdi
	call	__asan_report_load4
.L97:
	.loc 1 1969 0
	movq	%rax, %rdi
	call	__asan_report_load4
.L96:
	.loc 1 1968 0
	call	__asan_report_store8
.L95:
	.loc 1 1966 0
	movq	%r9, %rdi
	call	__asan_report_load4
.L103:
	.loc 1 1952 0
	movq	%rcx, %rdi
	call	__asan_report_load8
.L94:
	.loc 1 1956 0
	movq	%rcx, %rdi
	call	__asan_report_load8
.L93:
	.loc 1 1954 0
	call	__asan_report_load4
.L92:
	call	__asan_report_load8
.L91:
	call	__asan_report_load8
.L90:
	.loc 1 1950 0
	movq	%rcx, %rdi
	call	__asan_report_load8
.L89:
	.loc 1 1947 0
	call	__asan_report_load4
.L88:
	call	__asan_report_load8
.L87:
	.loc 1 1944 0
	call	__asan_report_load8
.L86:
	call	__asan_report_load8
	.cfi_endproc
.LFE63:
	.size	update_throttles, .-update_throttles
	.section	.text.unlikely
.LCOLDE4:
	.text
.LHOTE4:
	.section	.rodata
	.align 32
.LC5:
	.string	"usage:  %s [-C configfile] [-p port] [-d dir] [-r|-nor] [-dd data_dir] [-s|-nos] [-v|-nov] [-g|-nog] [-u user] [-c cgipat] [-t throttles] [-h host] [-l logfile] [-i pidfile] [-T charset] [-P P3P] [-M maxage] [-V] [-D]\n"
	.zero	37
	.section	.text.unlikely
.LCOLDB6:
.LHOTB6:
	.type	usage, @function
usage:
.LASANPC49:
.LFB49:
	.loc 1 990 0
	.cfi_startproc
	pushq	%rax
	.cfi_def_cfa_offset 16
	.loc 1 991 0
	movl	$stderr, %eax
	movq	argv0(%rip), %rdx
	shrq	$3, %rax
	cmpb	$0, 2147450880(%rax)
	je	.L105
	movl	$stderr, %edi
	call	__asan_report_load8
.LVL1:
.L105:
	movq	stderr(%rip), %rdi
	movl	$.LC5, %esi
	xorl	%eax, %eax
	call	fprintf
.LVL2:
	.loc 1 994 0
	call	__asan_handle_no_return
.LVL3:
	movl	$1, %edi
	call	exit
.LVL4:
	.cfi_endproc
.LFE49:
	.size	usage, .-usage
.LCOLDE6:
.LHOTE6:
.LCOLDB7:
	.text
.LHOTB7:
	.p2align 4,,15
	.type	wakeup_connection, @function
wakeup_connection:
.LASANPC68:
.LFB68:
	.loc 1 2105 0
	.cfi_startproc
.LVL5:
	subq	$24, %rsp
	.cfi_def_cfa_offset 32
	.loc 1 2108 0
	movq	%rsp, %rax
	.loc 1 2105 0
	movq	%rdi, (%rsp)
	.loc 1 2108 0
	movq	%rsp, %rdi
	shrq	$3, %rax
	cmpb	$0, 2147450880(%rax)
	jne	.L134
	movq	(%rsp), %rsi
.LVL6:
	.loc 1 2109 0
	leaq	96(%rsi), %rdi
	movq	%rdi, %rax
	shrq	$3, %rax
	cmpb	$0, 2147450880(%rax)
	jne	.L135
	.loc 1 2110 0
	movq	%rsi, %rax
	.loc 1 2109 0
	movq	$0, 96(%rsi)
	.loc 1 2110 0
	shrq	$3, %rax
	movzbl	2147450880(%rax), %eax
	testb	%al, %al
	je	.L110
	movq	%rsi, %rdx
	andl	$7, %edx
	addl	$3, %edx
	cmpb	%al, %dl
	jge	.L136
.L110:
	cmpl	$3, (%rsi)
	je	.L137
	.loc 1 2115 0
	addq	$24, %rsp
	.cfi_remember_state
	.cfi_def_cfa_offset 8
	ret
	.p2align 4,,10
	.p2align 3
.L137:
	.cfi_restore_state
	.loc 1 2112 0
	movq	%rsi, %rax
	shrq	$3, %rax
	movzbl	2147450880(%rax), %eax
	testb	%al, %al
	je	.L112
	movq	%rsi, %rdx
	andl	$7, %edx
	addl	$3, %edx
	cmpb	%al, %dl
	jge	.L138
.L112:
	.loc 1 2113 0
	leaq	8(%rsi), %rdi
	.loc 1 2112 0
	movl	$2, (%rsi)
	.loc 1 2113 0
	movq	%rdi, %rax
	shrq	$3, %rax
	cmpb	$0, 2147450880(%rax)
	jne	.L139
	movq	8(%rsi), %rax
	leaq	704(%rax), %rdi
	movq	%rdi, %rdx
	shrq	$3, %rdx
	movzbl	2147450880(%rdx), %edx
	testb	%dl, %dl
	je	.L114
	movq	%rdi, %rcx
	andl	$7, %ecx
	addl	$3, %ecx
	cmpb	%dl, %cl
	jge	.L140
.L114:
	movl	704(%rax), %edi
	movl	$1, %edx
	call	fdwatch_add_fd
.LVL7:
	.loc 1 2115 0
	addq	$24, %rsp
	.cfi_remember_state
	.cfi_def_cfa_offset 8
	ret
.LVL8:
.L136:
	.cfi_restore_state
	.loc 1 2110 0
	movq	%rsi, %rdi
	call	__asan_report_load4
.LVL9:
.L135:
	.loc 1 2109 0
	call	__asan_report_store8
.LVL10:
.L134:
	.loc 1 2108 0
	call	__asan_report_load8
.LVL11:
.L140:
	.loc 1 2113 0
	call	__asan_report_load4
.LVL12:
.L139:
	call	__asan_report_load8
.LVL13:
.L138:
	.loc 1 2112 0
	movq	%rsi, %rdi
	call	__asan_report_store4
.LVL14:
	.cfi_endproc
.LFE68:
	.size	wakeup_connection, .-wakeup_connection
	.section	.text.unlikely
.LCOLDE7:
	.text
.LHOTE7:
	.globl	__asan_stack_malloc_1
	.section	.rodata.str1.1,"aMS",@progbits,1
.LC8:
	.string	"1 32 16 2 tv "
	.section	.rodata
	.align 32
.LC10:
	.string	"up %ld seconds, stats for %ld seconds:"
	.zero	57
	.align 32
.LC11:
	.string	"  thttpd - %ld connections (%g/sec), %d max simultaneous, %lld bytes (%g/sec), %d httpd_conns allocated"
	.zero	56
	.section	.text.unlikely
.LCOLDB12:
	.text
.LHOTB12:
	.p2align 4,,15
	.type	logstats, @function
logstats:
.LASANPC72:
.LFB72:
	.loc 1 2149 0
	.cfi_startproc
.LVL15:
	pushq	%r13
	.cfi_def_cfa_offset 16
	.cfi_offset 13, -16
	pushq	%r12
	.cfi_def_cfa_offset 24
	.cfi_offset 12, -24
	pushq	%rbp
	.cfi_def_cfa_offset 32
	.cfi_offset 6, -32
	pushq	%rbx
	.cfi_def_cfa_offset 40
	.cfi_offset 3, -40
	movq	%rdi, %rbp
	subq	$104, %rsp
	.cfi_def_cfa_offset 144
	movl	__asan_option_detect_stack_use_after_return(%rip), %eax
	movq	%rsp, %rbx
	movq	%rsp, %r13
	testl	%eax, %eax
	jne	.L153
.LVL16:
.L141:
	.loc 1 2149 0
	movq	%rbx, %r12
	movq	$1102416563, (%rbx)
	movq	$.LC8, 8(%rbx)
	shrq	$3, %r12
	.loc 1 2154 0
	testq	%rbp, %rbp
	.loc 1 2149 0
	movq	$.LASANPC72, 16(%rbx)
	movl	$-235802127, 2147450880(%r12)
	movl	$-185335808, 2147450884(%r12)
	movl	$-202116109, 2147450888(%r12)
	.loc 1 2154 0
	je	.L154
.LVL17:
.L145:
	.loc 1 2159 0
	movq	%rbp, %rax
	shrq	$3, %rax
	cmpb	$0, 2147450880(%rax)
	jne	.L155
	movq	0(%rbp), %rax
.LVL18:
	.loc 1 2160 0
	movq	%rax, %rdx
	.loc 1 2162 0
	movq	%rax, %rbp
.LVL19:
	.loc 1 2160 0
	subq	start_time(%rip), %rdx
.LVL20:
	.loc 1 2162 0
	subq	stats_time(%rip), %rbp
.LVL21:
	.loc 1 2164 0
	movq	%rax, stats_time(%rip)
	.loc 1 2162 0
	jne	.L156
.LVL22:
	.loc 1 2165 0
	movl	$1, %ecx
	movl	$.LC10, %esi
	movl	$6, %edi
	xorl	%eax, %eax
.LVL23:
	.loc 1 2163 0
	movl	$1, %ebp
	.loc 1 2165 0
	call	syslog
.LVL24:
	movss	.LC9(%rip), %xmm2
.LVL25:
.L149:
.LBB188:
.LBB189:
	.loc 1 2185 0
	movq	stats_bytes(%rip), %r8
	.loc 1 2183 0
	movq	stats_connections(%rip), %rdx
	.loc 1 2181 0
	movl	$.LC11, %esi
	.loc 1 2185 0
	pxor	%xmm1, %xmm1
	.loc 1 2181 0
	movl	httpd_conn_count(%rip), %r9d
	.loc 1 2183 0
	pxor	%xmm0, %xmm0
	.loc 1 2181 0
	movl	stats_simultaneous(%rip), %ecx
	movl	$6, %edi
	movl	$2, %eax
	.loc 1 2185 0
	cvtsi2ssq	%r8, %xmm1
	.loc 1 2183 0
	cvtsi2ssq	%rdx, %xmm0
	.loc 1 2185 0
	divss	%xmm2, %xmm1
	.loc 1 2183 0
	divss	%xmm2, %xmm0
	.loc 1 2181 0
	cvtss2sd	%xmm1, %xmm1
	cvtss2sd	%xmm0, %xmm0
	call	syslog
.LVL26:
.L148:
.LBE189:
.LBE188:
	.loc 1 2169 0
	movq	%rbp, %rdi
.LBB192:
.LBB190:
	.loc 1 2186 0
	movq	$0, stats_connections(%rip)
	.loc 1 2187 0
	movq	$0, stats_bytes(%rip)
	.loc 1 2188 0
	movl	$0, stats_simultaneous(%rip)
.LBE190:
.LBE192:
	.loc 1 2169 0
	call	httpd_logstats
.LVL27:
	.loc 1 2170 0
	movq	%rbp, %rdi
	call	mmc_logstats
.LVL28:
	.loc 1 2171 0
	movq	%rbp, %rdi
	call	fdwatch_logstats
.LVL29:
	.loc 1 2172 0
	movq	%rbp, %rdi
	call	tmr_logstats
.LVL30:
	.loc 1 2149 0
	cmpq	%rbx, %r13
	jne	.L157
	movq	$0, 2147450880(%r12)
	movl	$0, 2147450888(%r12)
.L143:
	.loc 1 2173 0
	addq	$104, %rsp
	.cfi_remember_state
	.cfi_def_cfa_offset 40
	popq	%rbx
	.cfi_def_cfa_offset 32
	popq	%rbp
	.cfi_def_cfa_offset 24
.LVL31:
	popq	%r12
	.cfi_def_cfa_offset 16
	popq	%r13
	.cfi_def_cfa_offset 8
	ret
.LVL32:
	.p2align 4,,10
	.p2align 3
.L156:
	.cfi_restore_state
	.loc 1 2165 0
	xorl	%eax, %eax
.LVL33:
	movq	%rbp, %rcx
	movl	$.LC10, %esi
	movl	$6, %edi
	call	syslog
.LVL34:
.LBB193:
.LBB191:
	.loc 1 2180 0
	testq	%rbp, %rbp
	jle	.L148
	pxor	%xmm2, %xmm2
	cvtsi2ssq	%rbp, %xmm2
	jmp	.L149
.LVL35:
	.p2align 4,,10
	.p2align 3
.L154:
.LBE191:
.LBE193:
	.loc 1 2156 0
	leaq	32(%rbx), %rbp
.LVL36:
	xorl	%esi, %esi
	movq	%rbp, %rdi
	call	gettimeofday
.LVL37:
	jmp	.L145
.LVL38:
.L157:
	.loc 1 2149 0
	movabsq	$-723401728380766731, %rax
	movq	$1172321806, (%rbx)
	movl	$-168430091, 2147450888(%r12)
	movq	%rax, 2147450880(%r12)
	jmp	.L143
.LVL39:
.L153:
	movq	%rsp, %rsi
	movl	$96, %edi
.LVL40:
	call	__asan_stack_malloc_1
.LVL41:
	movq	%rax, %rbx
	jmp	.L141
.L155:
	.loc 1 2159 0
	movq	%rbp, %rdi
	call	__asan_report_load8
.LVL42:
	.cfi_endproc
.LFE72:
	.size	logstats, .-logstats
	.section	.text.unlikely
.LCOLDE12:
	.text
.LHOTE12:
	.section	.text.unlikely
.LCOLDB13:
	.text
.LHOTB13:
	.p2align 4,,15
	.type	show_stats, @function
show_stats:
.LASANPC71:
.LFB71:
	.loc 1 2140 0
	.cfi_startproc
.LVL43:
	.loc 1 2141 0
	movq	%rsi, %rdi
.LVL44:
	jmp	logstats
.LVL45:
	.cfi_endproc
.LFE71:
	.size	show_stats, .-show_stats
	.section	.text.unlikely
.LCOLDE13:
	.text
.LHOTE13:
	.section	.text.unlikely
.LCOLDB14:
	.text
.LHOTB14:
	.p2align 4,,15
	.type	handle_usr2, @function
handle_usr2:
.LASANPC44:
.LFB44:
	.loc 1 282 0
	.cfi_startproc
.LVL46:
	pushq	%rbp
	.cfi_def_cfa_offset 16
	.cfi_offset 6, -16
	pushq	%rbx
	.cfi_def_cfa_offset 24
	.cfi_offset 3, -24
	subq	$8, %rsp
	.cfi_def_cfa_offset 32
	.loc 1 283 0
	call	__errno_location
.LVL47:
	movq	%rax, %rbx
	shrq	$3, %rax
	movzbl	2147450880(%rax), %eax
	testb	%al, %al
	je	.L160
	movq	%rbx, %rdx
	andl	$7, %edx
	addl	$3, %edx
	cmpb	%al, %dl
	jge	.L175
.L160:
	.loc 1 290 0
	xorl	%edi, %edi
	.loc 1 283 0
	movl	(%rbx), %ebp
.LVL48:
	.loc 1 290 0
	call	logstats
.LVL49:
	.loc 1 293 0
	movq	%rbx, %rax
	shrq	$3, %rax
	movzbl	2147450880(%rax), %eax
	testb	%al, %al
	je	.L161
	movq	%rbx, %rdx
	andl	$7, %edx
	addl	$3, %edx
	cmpb	%al, %dl
	jge	.L176
.L161:
	movl	%ebp, (%rbx)
	.loc 1 294 0
	addq	$8, %rsp
	.cfi_remember_state
	.cfi_def_cfa_offset 24
	popq	%rbx
	.cfi_def_cfa_offset 16
	popq	%rbp
	.cfi_def_cfa_offset 8
.LVL50:
	ret
.LVL51:
.L176:
	.cfi_restore_state
	.loc 1 293 0
	movq	%rbx, %rdi
	call	__asan_report_store4
.LVL52:
.L175:
	.loc 1 283 0
	movq	%rbx, %rdi
	call	__asan_report_load4
.LVL53:
	.cfi_endproc
.LFE44:
	.size	handle_usr2, .-handle_usr2
	.section	.text.unlikely
.LCOLDE14:
	.text
.LHOTE14:
	.section	.text.unlikely
.LCOLDB15:
	.text
.LHOTB15:
	.p2align 4,,15
	.type	occasional, @function
occasional:
.LASANPC70:
.LFB70:
	.loc 1 2130 0
	.cfi_startproc
.LVL54:
	subq	$8, %rsp
	.cfi_def_cfa_offset 16
	.loc 1 2131 0
	movq	%rsi, %rdi
.LVL55:
	call	mmc_cleanup
.LVL56:
	.loc 1 2132 0
	call	tmr_cleanup
.LVL57:
	.loc 1 2133 0
	movl	$1, watchdog_flag(%rip)
	.loc 1 2134 0
	addq	$8, %rsp
	.cfi_def_cfa_offset 8
	ret
	.cfi_endproc
.LFE70:
	.size	occasional, .-occasional
	.section	.text.unlikely
.LCOLDE15:
	.text
.LHOTE15:
	.section	.rodata.str1.1
.LC16:
	.string	"1 32 4 6 status "
	.section	.rodata
	.align 32
.LC17:
	.string	"child wait - %m"
	.zero	48
	.section	.text.unlikely
.LCOLDB18:
	.text
.LHOTB18:
	.p2align 4,,15
	.type	handle_chld, @function
handle_chld:
.LASANPC41:
.LFB41:
	.loc 1 185 0
	.cfi_startproc
.LVL58:
	pushq	%r15
	.cfi_def_cfa_offset 16
	.cfi_offset 15, -16
	pushq	%r14
	.cfi_def_cfa_offset 24
	.cfi_offset 14, -24
	pushq	%r13
	.cfi_def_cfa_offset 32
	.cfi_offset 13, -32
	pushq	%r12
	.cfi_def_cfa_offset 40
	.cfi_offset 12, -40
	pushq	%rbp
	.cfi_def_cfa_offset 48
	.cfi_offset 6, -48
	pushq	%rbx
	.cfi_def_cfa_offset 56
	.cfi_offset 3, -56
	subq	$120, %rsp
	.cfi_def_cfa_offset 176
	movl	__asan_option_detect_stack_use_after_return(%rip), %eax
	leaq	16(%rsp), %rbp
	testl	%eax, %eax
	jne	.L235
.LVL59:
.L179:
	.loc 1 185 0
	movq	%rbp, %r13
	movq	$1102416563, 0(%rbp)
	movq	$.LC16, 8(%rbp)
	shrq	$3, %r13
	movq	$.LASANPC41, 16(%rbp)
	leaq	96(%rbp), %r12
	movl	$-235802127, 2147450880(%r13)
	movl	$-185273340, 2147450884(%r13)
	movl	$-202116109, 2147450888(%r13)
	.loc 1 186 0
	call	__errno_location
.LVL60:
	movq	%rax, %rbx
	shrq	$3, %rax
	movzbl	2147450880(%rax), %eax
	testb	%al, %al
	je	.L183
	movq	%rbx, %rdx
	andl	$7, %edx
	addl	$3, %edx
	cmpb	%al, %dl
	jge	.L236
.L183:
	.loc 1 207 0
	movq	%rbx, %rax
	.loc 1 186 0
	movl	(%rbx), %r15d
.LVL61:
	.loc 1 207 0
	movq	%rbx, %r14
	andl	$7, %eax
	subq	$64, %r12
	shrq	$3, %r14
	addl	$3, %eax
	movb	%al, 15(%rsp)
	.p2align 4,,10
	.p2align 3
.L184:
	.loc 1 199 0
	movl	$1, %edx
	movq	%r12, %rsi
	movl	$-1, %edi
	call	waitpid
.LVL62:
	.loc 1 203 0
	testl	%eax, %eax
	je	.L189
	.loc 1 205 0
	js	.L237
	.loc 1 222 0
	movq	hs(%rip), %rax
.LVL63:
	testq	%rax, %rax
	je	.L184
	.loc 1 224 0
	leaq	36(%rax), %rdi
	movq	%rdi, %rdx
	shrq	$3, %rdx
	movzbl	2147450880(%rdx), %edx
	testb	%dl, %dl
	je	.L190
	movq	%rdi, %rcx
	andl	$7, %ecx
	addl	$3, %ecx
	cmpb	%dl, %cl
	jge	.L238
.L190:
	.loc 1 225 0
	movl	36(%rax), %edx
	subl	$1, %edx
	js	.L191
	.loc 1 224 0
	movl	%edx, 36(%rax)
	jmp	.L184
.LVL64:
	.p2align 4,,10
	.p2align 3
.L237:
	.loc 1 207 0
	movzbl	2147450880(%r14), %eax
.LVL65:
	testb	%al, %al
	je	.L187
	cmpb	%al, 15(%rsp)
	jge	.L239
.L187:
	movl	(%rbx), %eax
	cmpl	$11, %eax
	je	.L184
	cmpl	$4, %eax
	je	.L184
	.loc 1 212 0
	cmpl	$10, %eax
	je	.L189
	.loc 1 213 0
	movl	$.LC17, %esi
	movl	$3, %edi
	xorl	%eax, %eax
	call	syslog
.LVL66:
.L189:
	.loc 1 231 0
	movq	%rbx, %rax
	shrq	$3, %rax
	movzbl	2147450880(%rax), %eax
	testb	%al, %al
	je	.L194
	movq	%rbx, %rdx
	andl	$7, %edx
	addl	$3, %edx
	cmpb	%al, %dl
	jge	.L240
.L194:
	.loc 1 185 0
	leaq	16(%rsp), %rax
	.loc 1 231 0
	movl	%r15d, (%rbx)
	.loc 1 185 0
	cmpq	%rbp, %rax
	jne	.L241
	movq	$0, 2147450880(%r13)
	movl	$0, 2147450888(%r13)
.L181:
	.loc 1 232 0
	addq	$120, %rsp
	.cfi_remember_state
	.cfi_def_cfa_offset 56
	popq	%rbx
	.cfi_def_cfa_offset 48
	popq	%rbp
	.cfi_def_cfa_offset 40
	popq	%r12
	.cfi_def_cfa_offset 32
	popq	%r13
	.cfi_def_cfa_offset 24
	popq	%r14
	.cfi_def_cfa_offset 16
	popq	%r15
	.cfi_def_cfa_offset 8
.LVL67:
	ret
.LVL68:
	.p2align 4,,10
	.p2align 3
.L191:
	.cfi_restore_state
	.loc 1 226 0
	movq	%rdi, %rdx
	shrq	$3, %rdx
	movzbl	2147450880(%rdx), %edx
	testb	%dl, %dl
	je	.L192
	movq	%rdi, %rcx
	andl	$7, %ecx
	addl	$3, %ecx
	cmpb	%dl, %cl
	jge	.L242
.L192:
	movl	$0, 36(%rax)
	jmp	.L184
.L242:
	call	__asan_report_store4
.LVL69:
	.p2align 4,,10
	.p2align 3
.L241:
	.loc 1 185 0
	movabsq	$-723401728380766731, %rax
	movq	$1172321806, 0(%rbp)
	movl	$-168430091, 2147450888(%r13)
	movq	%rax, 2147450880(%r13)
	jmp	.L181
.LVL70:
.L235:
	movq	%rbp, %rsi
	movl	$96, %edi
.LVL71:
	call	__asan_stack_malloc_1
.LVL72:
	movq	%rax, %rbp
	jmp	.L179
.LVL73:
.L240:
	.loc 1 231 0
	movq	%rbx, %rdi
	call	__asan_report_store4
.LVL74:
.L236:
	.loc 1 186 0
	movq	%rbx, %rdi
	call	__asan_report_load4
.LVL75:
.L239:
	.loc 1 207 0
	movq	%rbx, %rdi
	call	__asan_report_load4
.LVL76:
.L238:
	.loc 1 224 0
	call	__asan_report_load4
.LVL77:
	.cfi_endproc
.LFE41:
	.size	handle_chld, .-handle_chld
	.section	.text.unlikely
.LCOLDE18:
	.text
.LHOTE18:
	.section	.rodata
	.align 32
.LC19:
	.string	"too many connections!"
	.zero	42
	.align 32
.LC20:
	.string	"the connects free list is messed up"
	.zero	60
	.align 32
.LC21:
	.string	"out of memory allocating an httpd_conn"
	.zero	57
	.section	.text.unlikely
.LCOLDB22:
	.text
.LHOTB22:
	.p2align 4,,15
	.type	handle_newconnect, @function
handle_newconnect:
.LASANPC57:
.LFB57:
	.loc 1 1505 0
	.cfi_startproc
.LVL78:
	pushq	%r15
	.cfi_def_cfa_offset 16
	.cfi_offset 15, -16
	pushq	%r14
	.cfi_def_cfa_offset 24
	.cfi_offset 14, -24
	pushq	%r13
	.cfi_def_cfa_offset 32
	.cfi_offset 13, -32
	pushq	%r12
	.cfi_def_cfa_offset 40
	.cfi_offset 12, -40
	.loc 1 1566 0
	movq	%rdi, %r13
	.loc 1 1505 0
	pushq	%rbp
	.cfi_def_cfa_offset 48
	.cfi_offset 6, -48
	pushq	%rbx
	.cfi_def_cfa_offset 56
	.cfi_offset 3, -56
	movq	%rdi, %rbp
	movl	%esi, %r12d
	.loc 1 1566 0
	shrq	$3, %r13
	.loc 1 1505 0
	subq	$24, %rsp
	.cfi_def_cfa_offset 80
	movl	num_connects(%rip), %eax
.LVL79:
.L268:
	.loc 1 1516 0
	cmpl	%eax, max_connects(%rip)
	jle	.L317
	.loc 1 1527 0
	movslq	first_free_connect(%rip), %rax
	cmpl	$-1, %eax
	je	.L248
	.loc 1 1527 0 is_stmt 0 discriminator 1
	leaq	(%rax,%rax,8), %rbx
	salq	$4, %rbx
	addq	connects(%rip), %rbx
	movq	%rbx, %rax
	shrq	$3, %rax
	movzbl	2147450880(%rax), %eax
	testb	%al, %al
	je	.L247
	movq	%rbx, %rdx
	andl	$7, %edx
	addl	$3, %edx
	cmpb	%al, %dl
	jge	.L318
.L247:
	movl	(%rbx), %eax
	testl	%eax, %eax
	jne	.L248
.LVL80:
	.loc 1 1534 0 is_stmt 1
	leaq	8(%rbx), %r14
	movq	%r14, %r15
	shrq	$3, %r15
	cmpb	$0, 2147450880(%r15)
	jne	.L319
	movq	8(%rbx), %rdx
	testq	%rdx, %rdx
	je	.L320
.L250:
	.loc 1 1547 0
	movq	hs(%rip), %rdi
	movl	%r12d, %esi
	call	httpd_get_conn
.LVL81:
	testl	%eax, %eax
	je	.L255
	cmpl	$2, %eax
	je	.L270
	.loc 1 1560 0
	movq	%rbx, %rax
	shrq	$3, %rax
	movzbl	2147450880(%rax), %eax
	testb	%al, %al
	je	.L256
	movq	%rbx, %rdx
	andl	$7, %edx
	addl	$3, %edx
	cmpb	%al, %dl
	jge	.L321
.L256:
	.loc 1 1562 0
	leaq	4(%rbx), %rdi
	.loc 1 1560 0
	movl	$1, (%rbx)
	.loc 1 1562 0
	movq	%rdi, %rax
	shrq	$3, %rax
	movzbl	2147450880(%rax), %eax
	testb	%al, %al
	je	.L257
	movq	%rdi, %rdx
	andl	$7, %edx
	addl	$3, %edx
	cmpb	%al, %dl
	jge	.L322
.L257:
	.loc 1 1564 0
	addl	$1, num_connects(%rip)
.LVL82:
	.loc 1 1566 0
	cmpb	$0, 2147450880(%r13)
	.loc 1 1562 0
	movl	4(%rbx), %eax
	.loc 1 1563 0
	movl	$-1, 4(%rbx)
	.loc 1 1562 0
	movl	%eax, first_free_connect(%rip)
	.loc 1 1566 0
	jne	.L323
	leaq	88(%rbx), %rdi
	movq	0(%rbp), %rax
	movq	%rdi, %rdx
	shrq	$3, %rdx
	cmpb	$0, 2147450880(%rdx)
	jne	.L324
	.loc 1 1567 0
	leaq	96(%rbx), %rdi
	.loc 1 1566 0
	movq	%rax, 88(%rbx)
	.loc 1 1567 0
	movq	%rdi, %rax
	shrq	$3, %rax
	cmpb	$0, 2147450880(%rax)
	jne	.L325
	.loc 1 1568 0
	leaq	104(%rbx), %rdi
	.loc 1 1567 0
	movq	$0, 96(%rbx)
	.loc 1 1568 0
	movq	%rdi, %rax
	shrq	$3, %rax
	cmpb	$0, 2147450880(%rax)
	jne	.L326
	.loc 1 1569 0
	leaq	136(%rbx), %rdi
	.loc 1 1568 0
	movq	$0, 104(%rbx)
	.loc 1 1569 0
	movq	%rdi, %rax
	shrq	$3, %rax
	cmpb	$0, 2147450880(%rax)
	jne	.L327
	.loc 1 1570 0
	leaq	56(%rbx), %rdi
	.loc 1 1569 0
	movq	$0, 136(%rbx)
	.loc 1 1570 0
	movq	%rdi, %rax
	shrq	$3, %rax
	movzbl	2147450880(%rax), %eax
	testb	%al, %al
	je	.L263
	movq	%rdi, %rdx
	andl	$7, %edx
	addl	$3, %edx
	cmpb	%al, %dl
	jge	.L328
.L263:
	.loc 1 1573 0
	movq	%r14, %rax
	.loc 1 1570 0
	movl	$0, 56(%rbx)
	.loc 1 1573 0
	shrq	$3, %rax
	cmpb	$0, 2147450880(%rax)
	jne	.L329
	movq	8(%rbx), %rax
	leaq	704(%rax), %rdi
	movq	%rdi, %rdx
	shrq	$3, %rdx
	movzbl	2147450880(%rdx), %edx
	testb	%dl, %dl
	je	.L265
	movq	%rdi, %rcx
	andl	$7, %ecx
	addl	$3, %ecx
	cmpb	%dl, %cl
	jge	.L330
.L265:
	movl	704(%rax), %edi
	call	httpd_set_ndelay
.LVL83:
	.loc 1 1575 0
	movq	%r14, %rax
	shrq	$3, %rax
	cmpb	$0, 2147450880(%rax)
	jne	.L331
	movq	8(%rbx), %rax
	leaq	704(%rax), %rdi
	movq	%rdi, %rdx
	shrq	$3, %rdx
	movzbl	2147450880(%rdx), %edx
	testb	%dl, %dl
	je	.L267
	movq	%rdi, %rcx
	andl	$7, %ecx
	addl	$3, %ecx
	cmpb	%dl, %cl
	jge	.L332
.L267:
	movl	704(%rax), %edi
	xorl	%edx, %edx
	movq	%rbx, %rsi
	call	fdwatch_add_fd
.LVL84:
	.loc 1 1577 0
	addq	$1, stats_connections(%rip)
	.loc 1 1578 0
	movl	num_connects(%rip), %eax
	cmpl	stats_simultaneous(%rip), %eax
	jle	.L268
	.loc 1 1579 0
	movl	%eax, stats_simultaneous(%rip)
	jmp	.L268
.LVL85:
	.p2align 4,,10
	.p2align 3
.L270:
	.loc 1 1558 0
	movl	$1, %eax
.LVL86:
.L245:
	.loc 1 1581 0
	addq	$24, %rsp
	.cfi_remember_state
	.cfi_def_cfa_offset 56
	popq	%rbx
	.cfi_def_cfa_offset 48
	popq	%rbp
	.cfi_def_cfa_offset 40
.LVL87:
	popq	%r12
	.cfi_def_cfa_offset 32
.LVL88:
	popq	%r13
	.cfi_def_cfa_offset 24
	popq	%r14
	.cfi_def_cfa_offset 16
	popq	%r15
	.cfi_def_cfa_offset 8
	ret
.LVL89:
	.p2align 4,,10
	.p2align 3
.L255:
	.cfi_restore_state
	.loc 1 1553 0
	movq	%rbp, %rdi
	movl	%eax, 12(%rsp)
	call	tmr_run
.LVL90:
	.loc 1 1554 0
	movl	12(%rsp), %eax
	.loc 1 1581 0
	addq	$24, %rsp
	.cfi_remember_state
	.cfi_def_cfa_offset 56
	popq	%rbx
	.cfi_def_cfa_offset 48
.LVL91:
	popq	%rbp
	.cfi_def_cfa_offset 40
.LVL92:
	popq	%r12
	.cfi_def_cfa_offset 32
.LVL93:
	popq	%r13
	.cfi_def_cfa_offset 24
	popq	%r14
	.cfi_def_cfa_offset 16
.LVL94:
	popq	%r15
	.cfi_def_cfa_offset 8
	ret
.LVL95:
	.p2align 4,,10
	.p2align 3
.L320:
	.cfi_restore_state
	.loc 1 1536 0
	movl	$720, %edi
	call	malloc
.LVL96:
	cmpb	$0, 2147450880(%r15)
	jne	.L333
	.loc 1 1537 0
	testq	%rax, %rax
	.loc 1 1536 0
	movq	%rax, 8(%rbx)
	.loc 1 1537 0
	je	.L334
	.loc 1 1542 0
	movq	%rax, %rdx
	shrq	$3, %rdx
	movzbl	2147450880(%rdx), %edx
	testb	%dl, %dl
	je	.L253
	movq	%rax, %rcx
	andl	$7, %ecx
	addl	$3, %ecx
	cmpb	%dl, %cl
	jge	.L335
.L253:
	movl	$0, (%rax)
	.loc 1 1543 0
	addl	$1, httpd_conn_count(%rip)
	movq	%rax, %rdx
	jmp	.L250
.L335:
	.loc 1 1542 0
	movq	%rax, %rdi
	call	__asan_report_store4
.LVL97:
	.p2align 4,,10
	.p2align 3
.L317:
	.loc 1 1522 0
	xorl	%eax, %eax
	movl	$.LC19, %esi
	movl	$4, %edi
	call	syslog
.LVL98:
	.loc 1 1523 0
	movq	%rbp, %rdi
	call	tmr_run
.LVL99:
	.loc 1 1524 0
	xorl	%eax, %eax
	jmp	.L245
.L248:
	.loc 1 1529 0
	movl	$2, %edi
	movl	$.LC20, %esi
	xorl	%eax, %eax
	call	syslog
.LVL100:
	.loc 1 1530 0
	call	__asan_handle_no_return
.LVL101:
	movl	$1, %edi
	call	exit
.LVL102:
.L334:
	.loc 1 1539 0
	movl	$2, %edi
	movl	$.LC21, %esi
	call	syslog
.LVL103:
	.loc 1 1540 0
	call	__asan_handle_no_return
.LVL104:
	movl	$1, %edi
	call	exit
.LVL105:
.L333:
	.loc 1 1536 0
	movq	%r14, %rdi
	call	__asan_report_store8
.LVL106:
.L325:
	.loc 1 1567 0
	call	__asan_report_store8
.LVL107:
.L326:
	.loc 1 1568 0
	call	__asan_report_store8
.LVL108:
.L323:
	.loc 1 1566 0
	movq	%rbp, %rdi
	call	__asan_report_load8
.LVL109:
.L324:
	call	__asan_report_store8
.LVL110:
.L319:
	.loc 1 1534 0
	movq	%r14, %rdi
	call	__asan_report_load8
.LVL111:
.L318:
	.loc 1 1527 0
	movq	%rbx, %rdi
	call	__asan_report_load4
.LVL112:
.L327:
	.loc 1 1569 0
	call	__asan_report_store8
.LVL113:
.L328:
	.loc 1 1570 0
	call	__asan_report_store4
.LVL114:
.L329:
	.loc 1 1573 0
	movq	%r14, %rdi
	call	__asan_report_load8
.LVL115:
.L330:
	call	__asan_report_load4
.LVL116:
.L331:
	.loc 1 1575 0
	movq	%r14, %rdi
	call	__asan_report_load8
.LVL117:
.L332:
	call	__asan_report_load4
.LVL118:
.L321:
	.loc 1 1560 0
	movq	%rbx, %rdi
	call	__asan_report_store4
.LVL119:
.L322:
	.loc 1 1562 0
	call	__asan_report_load4
.LVL120:
	.cfi_endproc
.LFE57:
	.size	handle_newconnect, .-handle_newconnect
	.section	.text.unlikely
.LCOLDE22:
	.text
.LHOTE22:
	.section	.text.unlikely
.LCOLDB23:
	.text
.LHOTB23:
	.p2align 4,,15
	.type	really_clear_connection, @function
really_clear_connection:
.LASANPC66:
.LFB66:
	.loc 1 2048 0
	.cfi_startproc
.LVL121:
	pushq	%r12
	.cfi_def_cfa_offset 16
	.cfi_offset 12, -16
	pushq	%rbp
	.cfi_def_cfa_offset 24
	.cfi_offset 6, -24
	.loc 1 2049 0
	leaq	8(%rdi), %rbp
	.loc 1 2048 0
	pushq	%rbx
	.cfi_def_cfa_offset 32
	.cfi_offset 3, -32
	movq	%rdi, %rbx
	.loc 1 2049 0
	movq	%rbp, %rax
	shrq	$3, %rax
	.loc 1 2048 0
	subq	$16, %rsp
	.cfi_def_cfa_offset 48
	.loc 1 2049 0
	cmpb	$0, 2147450880(%rax)
	jne	.L399
	movq	8(%rdi), %rax
	leaq	200(%rax), %rdi
.LVL122:
	movq	%rdi, %rdx
	shrq	$3, %rdx
	cmpb	$0, 2147450880(%rdx)
	jne	.L400
	movq	200(%rax), %rdx
	addq	%rdx, stats_bytes(%rip)
	.loc 1 2050 0
	movq	%rbx, %rdx
	shrq	$3, %rdx
	movzbl	2147450880(%rdx), %edx
	testb	%dl, %dl
	je	.L339
	movq	%rbx, %rcx
	andl	$7, %ecx
	addl	$3, %ecx
	cmpb	%dl, %cl
	jge	.L401
.L339:
	cmpl	$3, (%rbx)
	je	.L340
	.loc 1 2051 0
	leaq	704(%rax), %rdi
	movq	%rdi, %rdx
	shrq	$3, %rdx
	movzbl	2147450880(%rdx), %edx
	testb	%dl, %dl
	je	.L341
	movq	%rdi, %rcx
	andl	$7, %ecx
	addl	$3, %ecx
	cmpb	%dl, %cl
	jge	.L402
.L341:
	movl	704(%rax), %edi
	movq	%rsi, 8(%rsp)
	call	fdwatch_del_fd
.LVL123:
	movq	%rbp, %rax
	movq	8(%rsp), %rsi
	shrq	$3, %rax
	cmpb	$0, 2147450880(%rax)
	jne	.L403
	movq	8(%rbx), %rax
.LVL124:
.L340:
	.loc 1 2052 0
	movq	%rax, %rdi
	call	httpd_close_conn
.LVL125:
.LBB194:
.LBB195:
	.loc 1 1926 0
	leaq	56(%rbx), %rdi
	movq	%rdi, %rax
	shrq	$3, %rax
	movzbl	2147450880(%rax), %eax
	testb	%al, %al
	je	.L343
	movq	%rdi, %rdx
	andl	$7, %edx
	addl	$3, %edx
	cmpb	%al, %dl
	jge	.L404
.L343:
	movl	56(%rbx), %eax
	testl	%eax, %eax
	jle	.L351
	subl	$1, %eax
	movq	throttles(%rip), %r9
	leaq	16(%rbx), %rdx
	leaq	20(%rbx,%rax,4), %r8
.LVL126:
	.p2align 4,,10
	.p2align 3
.L350:
	.loc 1 1927 0
	movq	%rdx, %rax
	shrq	$3, %rax
	movzbl	2147450880(%rax), %eax
	testb	%al, %al
	je	.L348
	movq	%rdx, %rcx
	andl	$7, %ecx
	addl	$3, %ecx
	cmpb	%al, %cl
	jge	.L405
.L348:
	movslq	(%rdx), %rax
	leaq	(%rax,%rax,2), %rax
	salq	$4, %rax
	addq	%r9, %rax
	leaq	40(%rax), %rcx
	movq	%rcx, %rsi
	shrq	$3, %rsi
	movzbl	2147450880(%rsi), %esi
	testb	%sil, %sil
	je	.L349
	movq	%rcx, %rdi
	andl	$7, %edi
	addl	$3, %edi
	cmpb	%sil, %dil
	jge	.L406
.L349:
	addq	$4, %rdx
	subl	$1, 40(%rax)
	.loc 1 1926 0
	cmpq	%r8, %rdx
	jne	.L350
.L351:
.LBE195:
.LBE194:
	.loc 1 2054 0
	leaq	104(%rbx), %r12
	movq	%r12, %rbp
	shrq	$3, %rbp
	cmpb	$0, 2147450880(%rbp)
	jne	.L407
	movq	104(%rbx), %rdi
	testq	%rdi, %rdi
	je	.L347
	.loc 1 2056 0
	call	tmr_cancel
.LVL127:
	.loc 1 2057 0
	cmpb	$0, 2147450880(%rbp)
	jne	.L408
	movq	$0, 104(%rbx)
.L347:
	.loc 1 2059 0
	movq	%rbx, %rax
	shrq	$3, %rax
	movzbl	2147450880(%rax), %eax
	testb	%al, %al
	je	.L353
	movq	%rbx, %rdx
	andl	$7, %edx
	addl	$3, %edx
	cmpb	%al, %dl
	jge	.L409
.L353:
	.loc 1 2060 0
	leaq	4(%rbx), %rdi
	.loc 1 2059 0
	movl	$0, (%rbx)
	.loc 1 2060 0
	movl	first_free_connect(%rip), %edx
	movq	%rdi, %rax
	shrq	$3, %rax
	movzbl	2147450880(%rax), %eax
	testb	%al, %al
	je	.L354
	movq	%rdi, %rcx
	andl	$7, %ecx
	addl	$3, %ecx
	cmpb	%al, %cl
	jge	.L410
.L354:
	movl	%edx, 4(%rbx)
	.loc 1 2061 0
	subq	connects(%rip), %rbx
.LVL128:
	movabsq	$-8198552921648689607, %rax
	.loc 1 2062 0
	subl	$1, num_connects(%rip)
	.loc 1 2061 0
	sarq	$4, %rbx
	imulq	%rax, %rbx
	movl	%ebx, first_free_connect(%rip)
	.loc 1 2063 0
	addq	$16, %rsp
	.cfi_remember_state
	.cfi_def_cfa_offset 32
	popq	%rbx
	.cfi_def_cfa_offset 24
	popq	%rbp
	.cfi_def_cfa_offset 16
	popq	%r12
	.cfi_def_cfa_offset 8
.LVL129:
	ret
.LVL130:
.L402:
	.cfi_restore_state
	.loc 1 2051 0
	call	__asan_report_load4
.LVL131:
.L401:
	.loc 1 2050 0
	movq	%rbx, %rdi
	call	__asan_report_load4
.LVL132:
.L400:
	.loc 1 2049 0
	call	__asan_report_load8
.LVL133:
.L399:
	movq	%rbp, %rdi
	call	__asan_report_load8
.LVL134:
.L410:
	.loc 1 2060 0
	call	__asan_report_store4
.LVL135:
.L409:
	.loc 1 2059 0
	movq	%rbx, %rdi
	call	__asan_report_store4
.LVL136:
.L408:
	.loc 1 2057 0
	movq	%r12, %rdi
	call	__asan_report_store8
.LVL137:
.L407:
	.loc 1 2054 0
	movq	%r12, %rdi
	call	__asan_report_load8
.LVL138:
.L406:
.LBB197:
.LBB196:
	.loc 1 1927 0
	movq	%rcx, %rdi
	call	__asan_report_load4
.LVL139:
.L405:
	movq	%rdx, %rdi
	call	__asan_report_load4
.LVL140:
.L404:
	.loc 1 1926 0
	call	__asan_report_load4
.LVL141:
.L403:
	movq	%rbp, %rdi
	call	__asan_report_load8
.LVL142:
.LBE196:
.LBE197:
	.cfi_endproc
.LFE66:
	.size	really_clear_connection, .-really_clear_connection
	.section	.text.unlikely
.LCOLDE23:
	.text
.LHOTE23:
	.section	.rodata
	.align 32
.LC24:
	.string	"replacing non-null linger_timer!"
	.zero	63
	.align 32
.LC25:
	.string	"tmr_create(linger_clear_connection) failed"
	.zero	53
	.section	.text.unlikely
.LCOLDB26:
	.text
.LHOTB26:
	.p2align 4,,15
	.type	clear_connection, @function
clear_connection:
.LASANPC65:
.LFB65:
	.loc 1 1996 0
	.cfi_startproc
.LVL143:
	pushq	%r13
	.cfi_def_cfa_offset 16
	.cfi_offset 13, -16
	.loc 1 1999 0
	leaq	96(%rdi), %r13
	.loc 1 1996 0
	pushq	%r12
	.cfi_def_cfa_offset 24
	.cfi_offset 12, -24
	pushq	%rbp
	.cfi_def_cfa_offset 32
	.cfi_offset 6, -32
	pushq	%rbx
	.cfi_def_cfa_offset 40
	.cfi_offset 3, -40
	movq	%rdi, %rbx
	.loc 1 1999 0
	movq	%r13, %rbp
	shrq	$3, %rbp
	.loc 1 1996 0
	subq	$8, %rsp
	.cfi_def_cfa_offset 48
	.loc 1 1999 0
	cmpb	$0, 2147450880(%rbp)
	jne	.L489
	movq	96(%rdi), %rdi
.LVL144:
	movq	%rsi, %r12
	testq	%rdi, %rdi
	je	.L413
	.loc 1 2001 0
	call	tmr_cancel
.LVL145:
	.loc 1 2002 0
	cmpb	$0, 2147450880(%rbp)
	jne	.L490
	movq	$0, 96(%rbx)
.L413:
	.loc 1 2016 0
	movq	%rbx, %rax
	shrq	$3, %rax
	movzbl	2147450880(%rax), %eax
	testb	%al, %al
	je	.L415
	movq	%rbx, %rdx
	andl	$7, %edx
	addl	$3, %edx
	cmpb	%al, %dl
	jge	.L491
.L415:
	cmpl	$4, (%rbx)
	je	.L416
	leaq	8(%rbx), %rbp
	movq	%rbp, %rax
	shrq	$3, %rax
	cmpb	$0, 2147450880(%rax)
	jne	.L492
	movq	8(%rbx), %rax
	leaq	556(%rax), %rdi
	movq	%rdi, %rdx
	shrq	$3, %rdx
	movzbl	2147450880(%rdx), %edx
	testb	%dl, %dl
	je	.L418
	movq	%rdi, %rcx
	andl	$7, %ecx
	addl	$3, %ecx
	cmpb	%dl, %cl
	jge	.L493
.L418:
	.loc 1 2023 0
	movl	556(%rax), %edx
	testl	%edx, %edx
	je	.L420
	.loc 1 2025 0
	movq	%rbx, %rdx
	shrq	$3, %rdx
	movzbl	2147450880(%rdx), %edx
	testb	%dl, %dl
	je	.L425
	movq	%rbx, %rcx
	andl	$7, %ecx
	addl	$3, %ecx
	cmpb	%dl, %cl
	jge	.L494
.L425:
	cmpl	$3, (%rbx)
	je	.L426
	.loc 1 2026 0
	leaq	704(%rax), %rdi
	movq	%rdi, %rdx
	shrq	$3, %rdx
	movzbl	2147450880(%rdx), %edx
	testb	%dl, %dl
	je	.L427
	movq	%rdi, %rcx
	andl	$7, %ecx
	addl	$3, %ecx
	cmpb	%dl, %cl
	jge	.L495
.L427:
	movl	704(%rax), %edi
	call	fdwatch_del_fd
.LVL146:
	movq	%rbp, %rax
	shrq	$3, %rax
	cmpb	$0, 2147450880(%rax)
	jne	.L496
	movq	8(%rbx), %rax
.L426:
	.loc 1 2027 0
	movq	%rbx, %rdx
	shrq	$3, %rdx
	movzbl	2147450880(%rdx), %edx
	testb	%dl, %dl
	je	.L429
	movq	%rbx, %rcx
	andl	$7, %ecx
	addl	$3, %ecx
	cmpb	%dl, %cl
	jge	.L497
.L429:
	.loc 1 2028 0
	leaq	704(%rax), %rdi
	.loc 1 2027 0
	movl	$4, (%rbx)
	.loc 1 2028 0
	movq	%rdi, %rdx
	shrq	$3, %rdx
	movzbl	2147450880(%rdx), %edx
	testb	%dl, %dl
	je	.L430
	movq	%rdi, %rcx
	andl	$7, %ecx
	addl	$3, %ecx
	cmpb	%dl, %cl
	jge	.L498
.L430:
	movl	704(%rax), %edi
	movl	$1, %esi
	call	shutdown
.LVL147:
	.loc 1 2029 0
	movq	%rbp, %rax
	shrq	$3, %rax
	cmpb	$0, 2147450880(%rax)
	jne	.L499
	movq	8(%rbx), %rax
	leaq	704(%rax), %rdi
	movq	%rdi, %rdx
	shrq	$3, %rdx
	movzbl	2147450880(%rdx), %edx
	testb	%dl, %dl
	je	.L432
	movq	%rdi, %rcx
	andl	$7, %ecx
	addl	$3, %ecx
	cmpb	%dl, %cl
	jge	.L500
.L432:
	movl	704(%rax), %edi
	.loc 1 2031 0
	leaq	104(%rbx), %rbp
	.loc 1 2029 0
	xorl	%edx, %edx
	movq	%rbx, %rsi
	call	fdwatch_add_fd
.LVL148:
	.loc 1 2031 0
	movq	%rbp, %rax
	shrq	$3, %rax
	cmpb	$0, 2147450880(%rax)
	jne	.L501
	cmpq	$0, 104(%rbx)
	je	.L434
	.loc 1 2032 0
	movl	$.LC24, %esi
	movl	$3, %edi
	xorl	%eax, %eax
	call	syslog
.LVL149:
.L434:
	.loc 1 2033 0
	xorl	%r8d, %r8d
	movq	%rbx, %rdx
	movl	$500, %ecx
	movl	$linger_clear_connection, %esi
	movq	%r12, %rdi
	call	tmr_create
.LVL150:
	movq	%rbp, %rdx
	shrq	$3, %rdx
	cmpb	$0, 2147450880(%rdx)
	jne	.L502
	.loc 1 2035 0
	testq	%rax, %rax
	.loc 1 2033 0
	movq	%rax, 104(%rbx)
	.loc 1 2035 0
	je	.L503
	.loc 1 2043 0
	addq	$8, %rsp
	.cfi_remember_state
	.cfi_def_cfa_offset 40
	popq	%rbx
	.cfi_def_cfa_offset 32
.LVL151:
	popq	%rbp
	.cfi_def_cfa_offset 24
.LVL152:
	popq	%r12
	.cfi_def_cfa_offset 16
.LVL153:
	popq	%r13
	.cfi_def_cfa_offset 8
.LVL154:
	ret
.LVL155:
	.p2align 4,,10
	.p2align 3
.L416:
	.cfi_restore_state
	.loc 1 2019 0
	leaq	104(%rbx), %r13
	movq	%r13, %rbp
	shrq	$3, %rbp
	cmpb	$0, 2147450880(%rbp)
	jne	.L504
	movq	104(%rbx), %rdi
	call	tmr_cancel
.LVL156:
	.loc 1 2020 0
	cmpb	$0, 2147450880(%rbp)
	jne	.L505
	.loc 1 2021 0
	leaq	8(%rbx), %rdi
	.loc 1 2020 0
	movq	$0, 104(%rbx)
	.loc 1 2021 0
	movq	%rdi, %rax
	shrq	$3, %rax
	cmpb	$0, 2147450880(%rax)
	jne	.L506
	movq	8(%rbx), %rax
	leaq	556(%rax), %rdi
	movq	%rdi, %rdx
	shrq	$3, %rdx
	movzbl	2147450880(%rdx), %edx
	testb	%dl, %dl
	je	.L424
	movq	%rdi, %rcx
	andl	$7, %ecx
	addl	$3, %ecx
	cmpb	%dl, %cl
	jge	.L507
.L424:
	movl	$0, 556(%rax)
.L420:
	.loc 1 2043 0
	addq	$8, %rsp
	.cfi_remember_state
	.cfi_def_cfa_offset 40
	.loc 1 2042 0
	movq	%r12, %rsi
	movq	%rbx, %rdi
	.loc 1 2043 0
	popq	%rbx
	.cfi_def_cfa_offset 32
.LVL157:
	popq	%rbp
	.cfi_def_cfa_offset 24
	popq	%r12
	.cfi_def_cfa_offset 16
.LVL158:
	popq	%r13
	.cfi_def_cfa_offset 8
	.loc 1 2042 0
	jmp	really_clear_connection
.LVL159:
.L491:
	.cfi_restore_state
	.loc 1 2016 0
	movq	%rbx, %rdi
	call	__asan_report_load4
.LVL160:
.L497:
	.loc 1 2027 0
	movq	%rbx, %rdi
	call	__asan_report_store4
.LVL161:
.L500:
	.loc 1 2029 0
	call	__asan_report_load4
.LVL162:
.L498:
	.loc 1 2028 0
	call	__asan_report_load4
.LVL163:
.L494:
	.loc 1 2025 0
	movq	%rbx, %rdi
	call	__asan_report_load4
.LVL164:
.L493:
	call	__asan_report_load4
.LVL165:
.L495:
	.loc 1 2026 0
	call	__asan_report_load4
.LVL166:
.L503:
	.loc 1 2037 0
	movl	$2, %edi
	movl	$.LC25, %esi
	call	syslog
.LVL167:
	.loc 1 2038 0
	call	__asan_handle_no_return
.LVL168:
	movl	$1, %edi
	call	exit
.LVL169:
.L507:
	.loc 1 2021 0
	call	__asan_report_store4
.LVL170:
.L489:
	.loc 1 1999 0
	movq	%r13, %rdi
	call	__asan_report_load8
.LVL171:
.L496:
	movq	%rbp, %rdi
	call	__asan_report_load8
.LVL172:
.L504:
	.loc 1 2019 0
	movq	%r13, %rdi
	call	__asan_report_load8
.LVL173:
.L501:
	.loc 1 2031 0
	movq	%rbp, %rdi
	call	__asan_report_load8
.LVL174:
.L506:
	.loc 1 2021 0
	call	__asan_report_load8
.LVL175:
.L505:
	.loc 1 2020 0
	movq	%r13, %rdi
	call	__asan_report_store8
.LVL176:
.L499:
	.loc 1 2029 0
	movq	%rbp, %rdi
	call	__asan_report_load8
.LVL177:
.L492:
	movq	%rbp, %rdi
	call	__asan_report_load8
.LVL178:
.L502:
	.loc 1 2033 0
	movq	%rbp, %rdi
	call	__asan_report_store8
.LVL179:
.L490:
	.loc 1 2002 0
	movq	%r13, %rdi
	call	__asan_report_store8
.LVL180:
	.cfi_endproc
.LFE65:
	.size	clear_connection, .-clear_connection
	.section	.text.unlikely
.LCOLDE26:
	.text
.LHOTE26:
	.section	.rodata
	.align 32
.LC27:
	.string	"%.80s connection timed out reading"
	.zero	61
	.align 32
.LC28:
	.string	""
	.zero	63
	.align 32
.LC29:
	.string	"%.80s connection timed out sending"
	.zero	61
	.section	.text.unlikely
.LCOLDB30:
	.text
.LHOTB30:
	.p2align 4,,15
	.type	idle, @function
idle:
.LASANPC67:
.LFB67:
	.loc 1 2068 0
	.cfi_startproc
.LVL181:
	pushq	%r15
	.cfi_def_cfa_offset 16
	.cfi_offset 15, -16
	pushq	%r14
	.cfi_def_cfa_offset 24
	.cfi_offset 14, -24
	.loc 1 2072 0
	xorl	%r15d, %r15d
	.loc 1 2068 0
	pushq	%r13
	.cfi_def_cfa_offset 32
	.cfi_offset 13, -32
	pushq	%r12
	.cfi_def_cfa_offset 40
	.cfi_offset 12, -40
	.loc 1 2072 0
	xorl	%r14d, %r14d
	.loc 1 2068 0
	pushq	%rbp
	.cfi_def_cfa_offset 48
	.cfi_offset 6, -48
	pushq	%rbx
	.cfi_def_cfa_offset 56
	.cfi_offset 3, -56
	subq	$24, %rsp
	.cfi_def_cfa_offset 80
	.loc 1 2072 0
	movl	max_connects(%rip), %eax
	testl	%eax, %eax
	jle	.L508
	.loc 1 2083 0
	movl	$httpd_err408form, %eax
	.loc 1 2078 0
	movq	%rsi, %r12
	movq	%rsi, %rbp
	.loc 1 2083 0
	shrq	$3, %rax
	.loc 1 2078 0
	shrq	$3, %r12
	.loc 1 2083 0
	movq	%rax, (%rsp)
	jmp	.L532
.LVL182:
	.p2align 4,,10
	.p2align 3
.L542:
	.loc 1 2075 0
	jl	.L511
	cmpl	$3, %eax
	jg	.L511
	.loc 1 2090 0
	cmpb	$0, 2147450880(%r12)
	jne	.L538
	leaq	88(%rbx), %rdi
.LVL183:
	movq	0(%rbp), %rax
	movq	%rdi, %rdx
	shrq	$3, %rdx
	cmpb	$0, 2147450880(%rdx)
	jne	.L539
	subq	88(%rbx), %rax
	cmpq	$299, %rax
	jg	.L540
.LVL184:
.L511:
	.loc 1 2072 0 discriminator 2
	addl	$1, %r14d
.LVL185:
	addq	$144, %r15
	cmpl	%r14d, max_connects(%rip)
	jle	.L508
.LVL186:
.L532:
	.loc 1 2074 0
	movq	%r15, %rbx
	addq	connects(%rip), %rbx
.LVL187:
	.loc 1 2075 0
	movq	%rbx, %rax
	shrq	$3, %rax
	movzbl	2147450880(%rax), %eax
	testb	%al, %al
	je	.L510
	movq	%rbx, %rdx
	andl	$7, %edx
	addl	$3, %edx
	cmpb	%al, %dl
	jge	.L541
.L510:
	movl	(%rbx), %eax
	cmpl	$1, %eax
	jne	.L542
	.loc 1 2078 0
	cmpb	$0, 2147450880(%r12)
	jne	.L543
	leaq	88(%rbx), %rdi
.LVL188:
	movq	0(%rbp), %rax
	movq	%rdi, %rdx
	shrq	$3, %rdx
	cmpb	$0, 2147450880(%rdx)
	jne	.L544
	subq	88(%rbx), %rax
	cmpq	$59, %rax
	jle	.L511
	.loc 1 2082 0
	leaq	8(%rbx), %rax
	movq	%rax, %r13
	movq	%rax, 8(%rsp)
	shrq	$3, %r13
	cmpb	$0, 2147450880(%r13)
	jne	.L545
	.loc 1 2080 0
	movq	8(%rbx), %rax
	leaq	16(%rax), %rdi
	call	httpd_ntoa
.LVL189:
	movl	$.LC27, %esi
	movq	%rax, %rdx
	movl	$6, %edi
	xorl	%eax, %eax
	call	syslog
.LVL190:
	.loc 1 2083 0
	movq	(%rsp), %rax
	cmpb	$0, 2147450880(%rax)
	jne	.L546
	movl	$httpd_err408title, %eax
	movq	httpd_err408form(%rip), %r8
	shrq	$3, %rax
	cmpb	$0, 2147450880(%rax)
	jne	.L547
	cmpb	$0, 2147450880(%r13)
	movq	httpd_err408title(%rip), %rdx
	jne	.L548
	movq	8(%rbx), %rdi
	movl	$.LC28, %r9d
	movl	$408, %esi
	movq	%r9, %rcx
	call	httpd_send_err
.LVL191:
.LBB198:
.LBB199:
	.loc 1 1987 0
	cmpb	$0, 2147450880(%r13)
	jne	.L549
	movq	8(%rbx), %rdi
	call	httpd_write_response
.LVL192:
	.loc 1 1990 0
	movq	%rbp, %rsi
	movq	%rbx, %rdi
	call	clear_connection
.LVL193:
	jmp	.L511
.LVL194:
	.p2align 4,,10
	.p2align 3
.L508:
.LBE199:
.LBE198:
	.loc 1 2100 0
	addq	$24, %rsp
	.cfi_remember_state
	.cfi_def_cfa_offset 56
	popq	%rbx
	.cfi_def_cfa_offset 48
	popq	%rbp
	.cfi_def_cfa_offset 40
	popq	%r12
	.cfi_def_cfa_offset 32
	popq	%r13
	.cfi_def_cfa_offset 24
	popq	%r14
	.cfi_def_cfa_offset 16
	popq	%r15
	.cfi_def_cfa_offset 8
	ret
.LVL195:
	.p2align 4,,10
	.p2align 3
.L540:
	.cfi_restore_state
	.loc 1 2094 0
	leaq	8(%rbx), %rdi
	movq	%rdi, %rax
	shrq	$3, %rax
	cmpb	$0, 2147450880(%rax)
	jne	.L550
	.loc 1 2092 0
	movq	8(%rbx), %rax
	leaq	16(%rax), %rdi
	call	httpd_ntoa
.LVL196:
	movl	$.LC29, %esi
	movq	%rax, %rdx
	movl	$6, %edi
	xorl	%eax, %eax
	call	syslog
.LVL197:
	.loc 1 2095 0
	movq	%rbp, %rsi
	movq	%rbx, %rdi
	call	clear_connection
.LVL198:
	jmp	.L511
.LVL199:
.L541:
	.loc 1 2075 0
	movq	%rbx, %rdi
.LVL200:
	call	__asan_report_load4
.LVL201:
.L550:
	.loc 1 2094 0
	call	__asan_report_load8
.LVL202:
.L549:
.LBB201:
.LBB200:
	.loc 1 1987 0
	movq	8(%rsp), %rdi
	call	__asan_report_load8
.LVL203:
.L548:
.LBE200:
.LBE201:
	.loc 1 2083 0
	movq	8(%rsp), %rdi
	call	__asan_report_load8
.LVL204:
.L547:
	movl	$httpd_err408title, %edi
	call	__asan_report_load8
.LVL205:
.L546:
	movl	$httpd_err408form, %edi
	call	__asan_report_load8
.LVL206:
.L545:
	.loc 1 2082 0
	movq	%rax, %rdi
	call	__asan_report_load8
.LVL207:
.L544:
	.loc 1 2078 0
	call	__asan_report_load8
.LVL208:
.L543:
	movq	%rbp, %rdi
.LVL209:
	call	__asan_report_load8
.LVL210:
.L539:
	.loc 1 2090 0
	call	__asan_report_load8
.LVL211:
.L538:
	movq	%rbp, %rdi
.LVL212:
	call	__asan_report_load8
.LVL213:
	.cfi_endproc
.LFE67:
	.size	idle, .-idle
	.section	.text.unlikely
.LCOLDE30:
	.text
.LHOTE30:
	.section	.text.unlikely
.LCOLDB31:
	.text
.LHOTB31:
	.p2align 4,,15
	.type	linger_clear_connection, @function
linger_clear_connection:
.LASANPC69:
.LFB69:
	.loc 1 2119 0
	.cfi_startproc
.LVL214:
	subq	$24, %rsp
	.cfi_def_cfa_offset 32
	.loc 1 2122 0
	movq	%rsp, %rax
	.loc 1 2119 0
	movq	%rdi, (%rsp)
	.loc 1 2122 0
	movq	%rsp, %rdi
	shrq	$3, %rax
	cmpb	$0, 2147450880(%rax)
	jne	.L555
	movq	(%rsp), %rdi
.LVL215:
	.loc 1 2123 0
	leaq	104(%rdi), %rax
	movq	%rax, %rdx
	shrq	$3, %rdx
	cmpb	$0, 2147450880(%rdx)
	jne	.L556
	movq	$0, 104(%rdi)
	.loc 1 2124 0
	call	really_clear_connection
.LVL216:
	.loc 1 2125 0
	addq	$24, %rsp
	.cfi_remember_state
	.cfi_def_cfa_offset 8
	ret
.LVL217:
.L555:
	.cfi_restore_state
	.loc 1 2122 0
	call	__asan_report_load8
.LVL218:
.L556:
	.loc 1 2123 0
	movq	%rax, %rdi
.LVL219:
	call	__asan_report_store8
.LVL220:
	.cfi_endproc
.LFE69:
	.size	linger_clear_connection, .-linger_clear_connection
	.section	.text.unlikely
.LCOLDE31:
	.text
.LHOTE31:
	.section	.text.unlikely
.LCOLDB32:
	.text
.LHOTB32:
	.p2align 4,,15
	.type	shut_down, @function
shut_down:
.LASANPC56:
.LFB56:
	.loc 1 1467 0
	.cfi_startproc
	pushq	%r15
	.cfi_def_cfa_offset 16
	.cfi_offset 15, -16
	pushq	%r14
	.cfi_def_cfa_offset 24
	.cfi_offset 14, -24
	pushq	%r13
	.cfi_def_cfa_offset 32
	.cfi_offset 13, -32
	pushq	%r12
	.cfi_def_cfa_offset 40
	.cfi_offset 12, -40
	pushq	%rbp
	.cfi_def_cfa_offset 48
	.cfi_offset 6, -48
	pushq	%rbx
	.cfi_def_cfa_offset 56
	.cfi_offset 3, -56
	subq	$120, %rsp
	.cfi_def_cfa_offset 176
	movl	__asan_option_detect_stack_use_after_return(%rip), %ecx
	leaq	16(%rsp), %rbp
	testl	%ecx, %ecx
	jne	.L611
.L557:
	.loc 1 1471 0
	leaq	32(%rbp), %rbx
	.loc 1 1467 0
	movq	%rbp, %rax
	movq	$1102416563, 0(%rbp)
	shrq	$3, %rax
	movq	$.LC8, 8(%rbp)
	movq	$.LASANPC56, 16(%rbp)
	.loc 1 1471 0
	xorl	%esi, %esi
	.loc 1 1467 0
	movq	%rax, 8(%rsp)
	.loc 1 1471 0
	movq	%rbx, %rdi
	.loc 1 1467 0
	movl	$-235802127, 2147450880(%rax)
	movl	$-185335808, 2147450884(%rax)
	.loc 1 1473 0
	xorl	%r15d, %r15d
	.loc 1 1467 0
	movl	$-202116109, 2147450888(%rax)
	.loc 1 1471 0
	call	gettimeofday
.LVL221:
	.loc 1 1472 0
	movq	%rbx, %rdi
	.loc 1 1473 0
	xorl	%ebx, %ebx
	.loc 1 1472 0
	call	logstats
.LVL222:
	.loc 1 1473 0
	movl	max_connects(%rip), %edx
	.loc 1 1476 0
	leaq	32(%rbp), %rax
	movq	%rax, (%rsp)
	.loc 1 1473 0
	testl	%edx, %edx
	jg	.L598
	jmp	.L571
.LVL223:
	.p2align 4,,10
	.p2align 3
.L565:
	.loc 1 1477 0
	leaq	8(%rdx), %rdi
	movq	%rdi, %rax
	shrq	$3, %rax
	cmpb	$0, 2147450880(%rax)
	jne	.L612
	movq	8(%rdx), %rdi
	testq	%rdi, %rdi
	je	.L568
	.loc 1 1479 0
	call	httpd_destroy_conn
.LVL224:
	.loc 1 1480 0
	movq	%r15, %r13
	addq	connects(%rip), %r13
	leaq	8(%r13), %r14
	movq	%r14, %r12
	shrq	$3, %r12
	cmpb	$0, 2147450880(%r12)
	jne	.L613
	movq	8(%r13), %rdi
	call	free
.LVL225:
	.loc 1 1481 0
	subl	$1, httpd_conn_count(%rip)
	.loc 1 1482 0
	cmpb	$0, 2147450880(%r12)
	jne	.L614
	movq	$0, 8(%r13)
.L568:
	.loc 1 1473 0 discriminator 2
	addl	$1, %ebx
.LVL226:
	addq	$144, %r15
	cmpl	%ebx, max_connects(%rip)
	jle	.L571
.LVL227:
.L598:
	.loc 1 1475 0
	movq	%r15, %rdx
	addq	connects(%rip), %rdx
	movq	%rdx, %rax
	shrq	$3, %rax
	movzbl	2147450880(%rax), %eax
	testb	%al, %al
	je	.L564
	movq	%rdx, %rcx
	andl	$7, %ecx
	addl	$3, %ecx
	cmpb	%al, %cl
	jge	.L615
.L564:
	movl	(%rdx), %eax
	testl	%eax, %eax
	je	.L565
	.loc 1 1476 0
	leaq	8(%rdx), %rdi
	movq	%rdi, %rax
	shrq	$3, %rax
	cmpb	$0, 2147450880(%rax)
	jne	.L616
	movq	8(%rdx), %rdi
	movq	(%rsp), %rsi
	call	httpd_close_conn
.LVL228:
	movq	%r15, %rdx
	addq	connects(%rip), %rdx
	jmp	.L565
.LVL229:
	.p2align 4,,10
	.p2align 3
.L571:
	.loc 1 1485 0
	movq	hs(%rip), %rbx
	testq	%rbx, %rbx
	je	.L563
.LVL230:
.LBB202:
	.loc 1 1489 0
	leaq	72(%rbx), %rdi
	.loc 1 1488 0
	movq	$0, hs(%rip)
	.loc 1 1489 0
	movq	%rdi, %rax
	shrq	$3, %rax
	movzbl	2147450880(%rax), %eax
	testb	%al, %al
	je	.L572
	movq	%rdi, %rdx
	andl	$7, %edx
	addl	$3, %edx
	cmpb	%al, %dl
	jge	.L617
.L572:
	movl	72(%rbx), %edi
	cmpl	$-1, %edi
	je	.L573
	.loc 1 1490 0
	call	fdwatch_del_fd
.LVL231:
.L573:
	.loc 1 1491 0
	leaq	76(%rbx), %rdi
	movq	%rdi, %rax
	shrq	$3, %rax
	movzbl	2147450880(%rax), %eax
	testb	%al, %al
	je	.L574
	movq	%rdi, %rdx
	andl	$7, %edx
	addl	$3, %edx
	cmpb	%al, %dl
	jge	.L618
.L574:
	movl	76(%rbx), %edi
	cmpl	$-1, %edi
	je	.L575
	.loc 1 1492 0
	call	fdwatch_del_fd
.LVL232:
.L575:
	.loc 1 1493 0
	movq	%rbx, %rdi
	call	httpd_terminate
.LVL233:
.L563:
.LBE202:
	.loc 1 1495 0
	call	mmc_destroy
.LVL234:
	.loc 1 1496 0
	call	tmr_destroy
.LVL235:
	.loc 1 1497 0
	movq	connects(%rip), %rdi
	call	free
.LVL236:
	.loc 1 1498 0
	movq	throttles(%rip), %rdi
	testq	%rdi, %rdi
	je	.L560
	.loc 1 1499 0
	call	free
.LVL237:
.L560:
	.loc 1 1467 0
	leaq	16(%rsp), %rax
	cmpq	%rbp, %rax
	jne	.L619
	movq	8(%rsp), %rax
	movq	$0, 2147450880(%rax)
	movl	$0, 2147450888(%rax)
.L559:
	.loc 1 1500 0
	addq	$120, %rsp
	.cfi_remember_state
	.cfi_def_cfa_offset 56
	popq	%rbx
	.cfi_def_cfa_offset 48
	popq	%rbp
	.cfi_def_cfa_offset 40
	popq	%r12
	.cfi_def_cfa_offset 32
	popq	%r13
	.cfi_def_cfa_offset 24
	popq	%r14
	.cfi_def_cfa_offset 16
	popq	%r15
	.cfi_def_cfa_offset 8
	ret
.LVL238:
.L618:
	.cfi_restore_state
.LBB203:
	.loc 1 1491 0
	call	__asan_report_load4
.LVL239:
.L617:
	.loc 1 1489 0
	call	__asan_report_load4
.LVL240:
.L616:
.LBE203:
	.loc 1 1476 0
	call	__asan_report_load8
.LVL241:
.L614:
	.loc 1 1482 0
	movq	%r14, %rdi
	call	__asan_report_store8
.LVL242:
.L613:
	.loc 1 1480 0
	movq	%r14, %rdi
	call	__asan_report_load8
.LVL243:
.L612:
	.loc 1 1477 0
	call	__asan_report_load8
.LVL244:
.L615:
	.loc 1 1475 0
	movq	%rdx, %rdi
	call	__asan_report_load4
.LVL245:
.L611:
	.loc 1 1467 0
	movq	%rbp, %rsi
	movl	$96, %edi
	call	__asan_stack_malloc_1
.LVL246:
	movq	%rax, %rbp
	jmp	.L557
.L619:
	movq	$1172321806, 0(%rbp)
	movq	8(%rsp), %rax
	movabsq	$-723401728380766731, %rsi
	movq	%rsi, 2147450880(%rax)
	movl	$-168430091, 2147450888(%rax)
	jmp	.L559
	.cfi_endproc
.LFE56:
	.size	shut_down, .-shut_down
	.section	.text.unlikely
.LCOLDE32:
	.text
.LHOTE32:
	.section	.rodata
	.align 32
.LC33:
	.string	"exiting due to signal %d"
	.zero	39
	.section	.text.unlikely
.LCOLDB34:
	.text
.LHOTB34:
	.p2align 4,,15
	.type	handle_term, @function
handle_term:
.LASANPC40:
.LFB40:
	.loc 1 172 0
	.cfi_startproc
.LVL247:
	pushq	%rbx
	.cfi_def_cfa_offset 16
	.cfi_offset 3, -16
	.loc 1 172 0
	movl	%edi, %ebx
	.loc 1 175 0
	call	shut_down
.LVL248:
	.loc 1 176 0
	movl	$5, %edi
	movl	%ebx, %edx
	movl	$.LC33, %esi
	xorl	%eax, %eax
	call	syslog
.LVL249:
	.loc 1 177 0
	call	closelog
.LVL250:
	.loc 1 178 0
	call	__asan_handle_no_return
.LVL251:
	movl	$1, %edi
	call	exit
.LVL252:
	.cfi_endproc
.LFE40:
	.size	handle_term, .-handle_term
	.section	.text.unlikely
.LCOLDE34:
	.text
.LHOTE34:
	.section	.rodata
	.align 32
.LC35:
	.string	"%s: no value required for %s option\n"
	.zero	59
	.section	.text.unlikely
.LCOLDB36:
	.text
.LHOTB36:
	.p2align 4,,15
	.type	no_value_required.part.1, @function
no_value_required.part.1:
.LASANPC75:
.LFB75:
	.loc 1 1206 0
	.cfi_startproc
.LVL253:
	.loc 1 1210 0
	movl	$stderr, %eax
	.loc 1 1206 0
	subq	$8, %rsp
	.cfi_def_cfa_offset 16
	.loc 1 1210 0
	movq	argv0(%rip), %rdx
	shrq	$3, %rax
	cmpb	$0, 2147450880(%rax)
	jne	.L625
	movq	%rdi, %rcx
	movq	stderr(%rip), %rdi
.LVL254:
	movl	$.LC35, %esi
	xorl	%eax, %eax
	call	fprintf
.LVL255:
	.loc 1 1213 0
	call	__asan_handle_no_return
.LVL256:
	movl	$1, %edi
	call	exit
.LVL257:
.L625:
	.loc 1 1210 0
	movl	$stderr, %edi
.LVL258:
	call	__asan_report_load8
.LVL259:
	.cfi_endproc
.LFE75:
	.size	no_value_required.part.1, .-no_value_required.part.1
	.section	.text.unlikely
.LCOLDE36:
	.text
.LHOTE36:
	.section	.rodata
	.align 32
.LC37:
	.string	"%s: value required for %s option\n"
	.zero	62
	.section	.text.unlikely
.LCOLDB38:
	.text
.LHOTB38:
	.p2align 4,,15
	.type	value_required.part.2, @function
value_required.part.2:
.LASANPC76:
.LFB76:
	.loc 1 1194 0
	.cfi_startproc
.LVL260:
	.loc 1 1198 0
	movl	$stderr, %eax
	.loc 1 1194 0
	subq	$8, %rsp
	.cfi_def_cfa_offset 16
	.loc 1 1198 0
	movq	argv0(%rip), %rdx
	shrq	$3, %rax
	cmpb	$0, 2147450880(%rax)
	jne	.L629
	movq	%rdi, %rcx
	movq	stderr(%rip), %rdi
.LVL261:
	movl	$.LC37, %esi
	xorl	%eax, %eax
	call	fprintf
.LVL262:
	.loc 1 1200 0
	call	__asan_handle_no_return
.LVL263:
	movl	$1, %edi
	call	exit
.LVL264:
.L629:
	.loc 1 1198 0
	movl	$stderr, %edi
.LVL265:
	call	__asan_report_load8
.LVL266:
	.cfi_endproc
.LFE76:
	.size	value_required.part.2, .-value_required.part.2
	.section	.text.unlikely
.LCOLDE38:
	.text
.LHOTE38:
	.section	.rodata
	.align 32
.LC39:
	.string	"/tmp"
	.zero	59
	.section	.text.unlikely
.LCOLDB40:
	.text
.LHOTB40:
	.p2align 4,,15
	.type	handle_alrm, @function
handle_alrm:
.LASANPC45:
.LFB45:
	.loc 1 300 0
	.cfi_startproc
.LVL267:
	pushq	%rbp
	.cfi_def_cfa_offset 16
	.cfi_offset 6, -16
	pushq	%rbx
	.cfi_def_cfa_offset 24
	.cfi_offset 3, -24
	subq	$8, %rsp
	.cfi_def_cfa_offset 32
	.loc 1 301 0
	call	__errno_location
.LVL268:
	movq	%rax, %rbx
	shrq	$3, %rax
	movzbl	2147450880(%rax), %eax
	testb	%al, %al
	je	.L631
	movq	%rbx, %rdx
	andl	$7, %edx
	addl	$3, %edx
	cmpb	%al, %dl
	jge	.L647
.L631:
	.loc 1 304 0
	movl	watchdog_flag(%rip), %eax
	.loc 1 301 0
	movl	(%rbx), %ebp
.LVL269:
	.loc 1 304 0
	testl	%eax, %eax
	je	.L648
	.loc 1 318 0
	movl	$360, %edi
	.loc 1 311 0
	movl	$0, watchdog_flag(%rip)
	.loc 1 318 0
	call	alarm
.LVL270:
	.loc 1 321 0
	movq	%rbx, %rax
	shrq	$3, %rax
	movzbl	2147450880(%rax), %eax
	testb	%al, %al
	je	.L633
	movq	%rbx, %rdx
	andl	$7, %edx
	addl	$3, %edx
	cmpb	%al, %dl
	jge	.L649
.L633:
	movl	%ebp, (%rbx)
	.loc 1 322 0
	addq	$8, %rsp
	.cfi_remember_state
	.cfi_def_cfa_offset 24
	popq	%rbx
	.cfi_def_cfa_offset 16
	popq	%rbp
	.cfi_def_cfa_offset 8
.LVL271:
	ret
.LVL272:
.L649:
	.cfi_restore_state
	.loc 1 321 0
	movq	%rbx, %rdi
	call	__asan_report_store4
.LVL273:
.L647:
	.loc 1 301 0
	movq	%rbx, %rdi
	call	__asan_report_load4
.LVL274:
.L648:
.LBB206:
.LBB207:
	.loc 1 307 0
	movl	$.LC39, %edi
	call	chdir
.LVL275:
	.loc 1 309 0
	call	__asan_handle_no_return
.LVL276:
	call	abort
.LVL277:
.LBE207:
.LBE206:
	.cfi_endproc
.LFE45:
	.size	handle_alrm, .-handle_alrm
	.section	.text.unlikely
.LCOLDE40:
	.text
.LHOTE40:
	.section	.rodata
	.align 32
.LC41:
	.string	"out of memory copying a string"
	.zero	33
	.align 32
.LC42:
	.string	"%s: out of memory copying a string\n"
	.zero	60
	.section	.text.unlikely
.LCOLDB43:
	.text
.LHOTB43:
	.p2align 4,,15
	.type	e_strdup.part.4, @function
e_strdup.part.4:
.LASANPC78:
.LFB78:
	.loc 1 1219 0
	.cfi_startproc
.LVL278:
	.loc 1 1226 0
	xorl	%eax, %eax
	.loc 1 1219 0
	subq	$8, %rsp
	.cfi_def_cfa_offset 16
	.loc 1 1226 0
	movl	$.LC41, %esi
	movl	$2, %edi
	call	syslog
.LVL279:
	.loc 1 1227 0
	movl	$stderr, %eax
	movq	argv0(%rip), %rdx
	shrq	$3, %rax
	cmpb	$0, 2147450880(%rax)
	jne	.L653
	movq	stderr(%rip), %rdi
	movl	$.LC42, %esi
	xorl	%eax, %eax
	call	fprintf
.LVL280:
	.loc 1 1228 0
	call	__asan_handle_no_return
.LVL281:
	movl	$1, %edi
	call	exit
.LVL282:
.L653:
	.loc 1 1227 0
	movl	$stderr, %edi
	call	__asan_report_load8
.LVL283:
	.cfi_endproc
.LFE78:
	.size	e_strdup.part.4, .-e_strdup.part.4
	.section	.text.unlikely
.LCOLDE43:
	.text
.LHOTE43:
	.section	.rodata
	.align 32
.LC44:
	.string	"exiting"
	.zero	56
	.section	.text.unlikely
.LCOLDB45:
	.text
.LHOTB45:
	.p2align 4,,15
	.type	handle_usr1, @function
handle_usr1:
.LASANPC43:
.LFB43:
	.loc 1 257 0
	.cfi_startproc
.LVL284:
	.loc 1 260 0
	movl	num_connects(%rip), %edx
	testl	%edx, %edx
	je	.L657
	.loc 1 273 0
	movl	$1, got_usr1(%rip)
	ret
.L657:
.LVL285:
	.loc 1 257 0
	pushq	%rax
	.cfi_def_cfa_offset 16
.LBB210:
.LBB211:
	.loc 1 266 0
	call	shut_down
.LVL286:
	.loc 1 267 0
	movl	$5, %edi
	movl	$.LC44, %esi
	xorl	%eax, %eax
	call	syslog
.LVL287:
	.loc 1 268 0
	call	closelog
.LVL288:
	.loc 1 269 0
	call	__asan_handle_no_return
.LVL289:
	xorl	%edi, %edi
	call	exit
.LVL290:
.LBE211:
.LBE210:
	.cfi_endproc
.LFE43:
	.size	handle_usr1, .-handle_usr1
	.section	.text.unlikely
.LCOLDE45:
	.text
.LHOTE45:
	.globl	__asan_stack_malloc_9
	.section	.rodata.str1.8,"aMS",@progbits,1
	.align 8
.LC46:
	.string	"13 32 8 9 max_limit 96 8 9 min_limit 160 16 2 tv 224 32 2 iv 288 48 5 hints 384 10 7 portstr 448 128 3 sa4 608 128 3 sa6 768 4096 3 buf 4896 4097 3 cwd 9056 5000 3 buf 14112 5000 7 pattern 19168 10000 4 line "
	.globl	__asan_stack_free_9
	.section	.rodata
	.align 32
.LC47:
	.string	"nobody"
	.zero	57
	.align 32
.LC48:
	.string	"iso-8859-1"
	.zero	53
	.align 32
.LC49:
	.string	"thttpd/2.27.0 Oct 3, 2014"
	.zero	38
	.align 32
.LC50:
	.string	"r"
	.zero	62
	.align 32
.LC51:
	.string	" \t\n\r"
	.zero	59
	.align 32
.LC52:
	.string	"debug"
	.zero	58
	.align 32
.LC53:
	.string	"port"
	.zero	59
	.align 32
.LC54:
	.string	"dir"
	.zero	60
	.align 32
.LC55:
	.string	"chroot"
	.zero	57
	.align 32
.LC56:
	.string	"nochroot"
	.zero	55
	.align 32
.LC57:
	.string	"data_dir"
	.zero	55
	.align 32
.LC58:
	.string	"symlink"
	.zero	56
	.align 32
.LC59:
	.string	"nosymlink"
	.zero	54
	.align 32
.LC60:
	.string	"symlinks"
	.zero	55
	.align 32
.LC61:
	.string	"nosymlinks"
	.zero	53
	.align 32
.LC62:
	.string	"user"
	.zero	59
	.align 32
.LC63:
	.string	"cgipat"
	.zero	57
	.align 32
.LC64:
	.string	"cgilimit"
	.zero	55
	.align 32
.LC65:
	.string	"urlpat"
	.zero	57
	.align 32
.LC66:
	.string	"noemptyreferers"
	.zero	48
	.align 32
.LC67:
	.string	"localpat"
	.zero	55
	.align 32
.LC68:
	.string	"throttles"
	.zero	54
	.align 32
.LC69:
	.string	"host"
	.zero	59
	.align 32
.LC70:
	.string	"logfile"
	.zero	56
	.align 32
.LC71:
	.string	"vhost"
	.zero	58
	.align 32
.LC72:
	.string	"novhost"
	.zero	56
	.align 32
.LC73:
	.string	"globalpasswd"
	.zero	51
	.align 32
.LC74:
	.string	"noglobalpasswd"
	.zero	49
	.align 32
.LC75:
	.string	"pidfile"
	.zero	56
	.align 32
.LC76:
	.string	"charset"
	.zero	56
	.align 32
.LC77:
	.string	"p3p"
	.zero	60
	.align 32
.LC78:
	.string	"max_age"
	.zero	56
	.align 32
.LC79:
	.string	"%s: unknown config option '%s'\n"
	.zero	32
	.align 32
.LC80:
	.string	"-nor"
	.zero	59
	.align 32
.LC81:
	.string	"-nos"
	.zero	59
	.align 32
.LC82:
	.string	"-nov"
	.zero	59
	.align 32
.LC83:
	.string	"-nog"
	.zero	59
	.align 32
.LC84:
	.string	"%d"
	.zero	61
	.align 32
.LC85:
	.string	"getaddrinfo %.80s - %.80s"
	.zero	38
	.align 32
.LC86:
	.string	"%s: getaddrinfo %s - %s\n"
	.zero	39
	.align 32
.LC87:
	.string	"%.80s - sockaddr too small (%lu < %lu)"
	.zero	57
	.align 32
.LC88:
	.string	"can't find any valid address"
	.zero	35
	.align 32
.LC89:
	.string	"%s: can't find any valid address\n"
	.zero	62
	.align 32
.LC90:
	.string	"%.80s - %m"
	.zero	53
	.align 32
.LC91:
	.string	" %4900[^ \t] %ld-%ld"
	.zero	44
	.align 32
.LC92:
	.string	" %4900[^ \t] %ld"
	.zero	48
	.align 32
.LC93:
	.string	"unparsable line in %.80s - %.80s"
	.zero	63
	.align 32
.LC94:
	.string	"%s: unparsable line in %.80s - %.80s\n"
	.zero	58
	.align 32
.LC95:
	.string	"|/"
	.zero	61
	.align 32
.LC96:
	.string	"out of memory allocating a throttletab"
	.zero	57
	.align 32
.LC97:
	.string	"%s: out of memory allocating a throttletab\n"
	.zero	52
	.align 32
.LC98:
	.string	"unknown user - '%.80s'"
	.zero	41
	.align 32
.LC99:
	.string	"%s: unknown user - '%s'\n"
	.zero	39
	.align 32
.LC100:
	.string	"/dev/null"
	.zero	54
	.align 32
.LC101:
	.string	"a"
	.zero	62
	.align 32
.LC102:
	.string	"logfile is not an absolute path, you may not be able to re-open it"
	.zero	61
	.align 32
.LC103:
	.string	"%s: logfile is not an absolute path, you may not be able to re-open it\n"
	.zero	56
	.align 32
.LC104:
	.string	"fchown logfile - %m"
	.zero	44
	.align 32
.LC105:
	.string	"fchown logfile"
	.zero	49
	.align 32
.LC106:
	.string	"chdir - %m"
	.zero	53
	.align 32
.LC107:
	.string	"chdir"
	.zero	58
	.align 32
.LC108:
	.string	"/"
	.zero	62
	.align 32
.LC109:
	.string	"daemon - %m"
	.zero	52
	.align 32
.LC110:
	.string	"w"
	.zero	62
	.align 32
.LC111:
	.string	"%d\n"
	.zero	60
	.align 32
.LC112:
	.string	"fdwatch initialization failure"
	.zero	33
	.align 32
.LC113:
	.string	"chroot - %m"
	.zero	52
	.align 32
.LC114:
	.string	"logfile is not within the chroot tree, you will not be able to re-open it"
	.zero	54
	.align 32
.LC115:
	.string	"%s: logfile is not within the chroot tree, you will not be able to re-open it\n"
	.zero	49
	.align 32
.LC116:
	.string	"chroot chdir - %m"
	.zero	46
	.align 32
.LC117:
	.string	"chroot chdir"
	.zero	51
	.align 32
.LC118:
	.string	"data_dir chdir - %m"
	.zero	44
	.align 32
.LC119:
	.string	"data_dir chdir"
	.zero	49
	.align 32
.LC120:
	.string	"tmr_create(occasional) failed"
	.zero	34
	.align 32
.LC121:
	.string	"tmr_create(idle) failed"
	.zero	40
	.align 32
.LC122:
	.string	"tmr_create(update_throttles) failed"
	.zero	60
	.align 32
.LC123:
	.string	"tmr_create(show_stats) failed"
	.zero	34
	.align 32
.LC124:
	.string	"setgroups - %m"
	.zero	49
	.align 32
.LC125:
	.string	"setgid - %m"
	.zero	52
	.align 32
.LC126:
	.string	"initgroups - %m"
	.zero	48
	.align 32
.LC127:
	.string	"setuid - %m"
	.zero	52
	.align 32
.LC128:
	.string	"started as root without requesting chroot(), warning only"
	.zero	38
	.align 32
.LC129:
	.string	"out of memory allocating a connecttab"
	.zero	58
	.align 32
.LC130:
	.string	"re-opening logfile"
	.zero	45
	.align 32
.LC131:
	.string	"re-opening %.80s - %m"
	.zero	42
	.align 32
.LC132:
	.string	"fdwatch - %m"
	.zero	51
	.align 32
.LC133:
	.string	"throttle sending count was negative - shouldn't happen!"
	.zero	40
	.align 32
.LC134:
	.string	"replacing non-null wakeup_timer!"
	.zero	63
	.align 32
.LC135:
	.string	"tmr_create(wakeup_connection) failed"
	.zero	59
	.align 32
.LC136:
	.string	"write - %m sending %.80s"
	.zero	39
	.section	.text.unlikely
.LCOLDB137:
	.section	.text.startup,"ax",@progbits
.LHOTB137:
	.p2align 4,,15
	.globl	main
	.type	main, @function
main:
.LASANPC47:
.LFB47:
	.loc 1 353 0
	.cfi_startproc
.LVL291:
	pushq	%r15
	.cfi_def_cfa_offset 16
	.cfi_offset 15, -16
	pushq	%r14
	.cfi_def_cfa_offset 24
	.cfi_offset 14, -24
	pushq	%r13
	.cfi_def_cfa_offset 32
	.cfi_offset 13, -32
	pushq	%r12
	.cfi_def_cfa_offset 40
	.cfi_offset 12, -40
	movl	%edi, %r13d
	pushq	%rbp
	.cfi_def_cfa_offset 48
	.cfi_offset 6, -48
	pushq	%rbx
	.cfi_def_cfa_offset 56
	.cfi_offset 3, -56
	movq	%rsi, %r12
	subq	$29320, %rsp
	.cfi_def_cfa_offset 29376
	movl	__asan_option_detect_stack_use_after_return(%rip), %edx
	leaq	96(%rsp), %rax
	testl	%edx, %edx
	je	.L658
	movq	%rax, %rsi
.LVL292:
	movl	$29208, %edi
.LVL293:
	call	__asan_stack_malloc_9
.LVL294:
.L658:
	.loc 1 353 0
	movq	$1102416563, (%rax)
	movq	$.LC46, 8(%rax)
	leaq	29216(%rax), %r15
	movq	$.LASANPC47, 16(%rax)
	shrq	$3, %rax
	movl	$-235802127, 2147450880(%rax)
	movl	$-185273344, 2147450884(%rax)
	movl	$-218959118, 2147450888(%rax)
	movl	$-185273344, 2147450892(%rax)
	movl	$-218959118, 2147450896(%rax)
	movl	$-185335808, 2147450900(%rax)
	movl	$-218959118, 2147450904(%rax)
	movl	$-218959118, 2147450912(%rax)
	movl	$-185335808, 2147450920(%rax)
	movl	$-218959118, 2147450924(%rax)
	movl	$-185335296, 2147450928(%rax)
	movl	$-218959118, 2147450932(%rax)
	movl	$-218959118, 2147450952(%rax)
	movl	$-218959118, 2147450972(%rax)
	movl	$-218959118, 2147451488(%rax)
	movl	$-185273343, 2147452004(%rax)
	movl	$-218959118, 2147452008(%rax)
	movl	$-185273344, 2147452636(%rax)
	movl	$-218959118, 2147452640(%rax)
	movl	$-185273344, 2147453268(%rax)
	movl	$-218959118, 2147453272(%rax)
	movl	$-185335808, 2147454524(%rax)
	movq	%fs:40, %rax
	movq	%rax, 29304(%rsp)
	xorl	%eax, %eax
.LVL295:
	.loc 1 370 0
	movq	%r12, %rax
	shrq	$3, %rax
	cmpb	$0, 2147450880(%rax)
	jne	.L2162
	movq	(%r12), %rbx
	.loc 1 372 0
	movl	$47, %esi
	movq	%rbx, %rdi
	.loc 1 370 0
	movq	%rbx, argv0(%rip)
	.loc 1 372 0
	call	strrchr
.LVL296:
	.loc 1 374 0
	leaq	1(%rax), %rdx
	testq	%rax, %rax
	.loc 1 377 0
	movl	$9, %esi
	.loc 1 374 0
	cmovne	%rdx, %rbx
.LVL297:
	.loc 1 377 0
	movl	$24, %edx
	movq	%rbx, %rdi
	call	openlog
.LVL298:
.LBB396:
.LBB397:
	.loc 1 841 0
	movl	$80, %eax
	.loc 1 883 0
	cmpl	$1, %r13d
	.loc 1 840 0
	movl	$0, debug(%rip)
	.loc 1 841 0
	movw	%ax, port(%rip)
	.loc 1 842 0
	movq	$0, dir(%rip)
	.loc 1 843 0
	movq	$0, data_dir(%rip)
	.loc 1 847 0
	movl	$0, do_chroot(%rip)
	.loc 1 849 0
	movl	$0, no_log(%rip)
	.loc 1 850 0
	movl	$0, no_symlink_check(%rip)
	.loc 1 854 0
	movl	$0, do_vhost(%rip)
	.loc 1 859 0
	movl	$0, do_global_passwd(%rip)
	.loc 1 864 0
	movq	$0, cgi_pattern(%rip)
	.loc 1 869 0
	movl	$0, cgi_limit(%rip)
	.loc 1 871 0
	movq	$0, url_pattern(%rip)
	.loc 1 872 0
	movl	$0, no_empty_referers(%rip)
	.loc 1 873 0
	movq	$0, local_pattern(%rip)
	.loc 1 874 0
	movq	$0, throttlefile(%rip)
	.loc 1 875 0
	movq	$0, hostname(%rip)
	.loc 1 876 0
	movq	$0, logfile(%rip)
	.loc 1 877 0
	movq	$0, pidfile(%rip)
	.loc 1 878 0
	movq	$.LC47, user(%rip)
	.loc 1 879 0
	movq	$.LC48, charset(%rip)
	.loc 1 880 0
	movq	$.LC28, p3p(%rip)
	.loc 1 881 0
	movl	$-1, max_age(%rip)
.LVL299:
	.loc 1 883 0
	jle	.L1230
	leaq	8(%r12), %rdi
	movq	%rdi, %rax
	shrq	$3, %rax
	cmpb	$0, 2147450880(%rax)
	jne	.L2163
	movq	8(%r12), %rax
	movq	%rax, %rdx
	shrq	$3, %rdx
	movzbl	2147450880(%rdx), %edx
	testb	%dl, %dl
	je	.L666
	movq	%rax, %rcx
	andl	$7, %ecx
	cmpb	%cl, %dl
	jle	.L2164
.L666:
	cmpb	$45, (%rax)
	jne	.L1210
	leaq	-10048(%r15), %rbx
.LVL300:
	movl	$1, %r8d
	movq	%r15, 16(%rsp)
	movq	%rbx, (%rsp)
	jmp	.L833
.LVL301:
.L2171:
.LBB398:
.LBB399:
	.loc 1 885 0
	leaq	2(%rax), %rdi
	movq	%rdi, %rdx
	shrq	$3, %rdx
	movzbl	2147450880(%rdx), %edx
	testb	%dl, %dl
	je	.L672
	movq	%rdi, %rcx
.LVL302:
	andl	$7, %ecx
	cmpb	%cl, %dl
	jle	.L2165
.L672:
.LVL303:
.LBE399:
.LBE398:
	cmpb	$0, 2(%rax)
	je	.L2166
.LVL304:
.L755:
.LBB403:
	.loc 1 910 0
	movl	$.LC80, %edi
	movl	$5, %ecx
	movq	%rax, %rsi
.LBE403:
	repz; cmpsb
	jne	.L763
	.loc 1 912 0
	movl	$0, do_chroot(%rip)
	.loc 1 913 0
	movl	$0, no_symlink_check(%rip)
.LVL305:
.L752:
	.loc 1 981 0
	addl	$1, %r8d
.LVL306:
	.loc 1 883 0
	cmpl	%r8d, %r13d
	jle	.L2144
.L2176:
	movslq	%r8d, %rax
	leaq	(%r12,%rax,8), %rdi
	movq	%rdi, %rax
	shrq	$3, %rax
	cmpb	$0, 2147450880(%rax)
	jne	.L2167
.LVL307:
	movq	(%rdi), %rax
	movq	%rax, %rdx
	shrq	$3, %rdx
	movzbl	2147450880(%rdx), %edx
	testb	%dl, %dl
	je	.L832
	movq	%rax, %rcx
	andl	$7, %ecx
	cmpb	%cl, %dl
	jle	.L2168
.L832:
	cmpb	$45, (%rax)
	jne	.L1210
.LVL308:
.L833:
.LBB404:
.LBB400:
	.loc 1 885 0
	movq	%rax, %rdx
	shrq	$3, %rdx
	movzbl	2147450880(%rdx), %edx
	testb	%dl, %dl
	je	.L668
	movq	%rax, %rcx
	andl	$7, %ecx
	cmpb	%cl, %dl
	jle	.L2169
.L668:
	movzbl	(%rax), %r9d
.LVL309:
	subl	$45, %r9d
.LVL310:
	jne	.L755
	leaq	1(%rax), %rdx
	movq	%rdx, %rcx
	shrq	$3, %rcx
	movzbl	2147450880(%rcx), %ecx
	testb	%cl, %cl
	je	.L670
	movq	%rdx, %rsi
	andl	$7, %esi
	cmpb	%sil, %cl
	jle	.L2170
.L670:
	movzbl	1(%rax), %ecx
.LVL311:
	cmpb	$86, %cl
	je	.L2171
.LVL312:
.LBE400:
.LBE404:
.LBB405:
.LBB406:
	.loc 1 890 0
	cmpb	$67, %cl
	jne	.L1231
	leaq	2(%rax), %rdi
	movq	%rdi, %rcx
.LVL313:
	shrq	$3, %rcx
	movzbl	2147450880(%rcx), %ecx
	testb	%cl, %cl
	je	.L675
	movq	%rdi, %rsi
	andl	$7, %esi
	cmpb	%sil, %cl
	jle	.L2172
.L675:
.LVL314:
.LBE406:
.LBE405:
	cmpb	$0, 2(%rax)
	jne	.L755
	leal	1(%r8), %ebx
	cmpl	%ebx, %r13d
	movl	%ebx, 8(%rsp)
	jg	.L2173
.LVL315:
	movq	%rdx, %rcx
	shrq	$3, %rcx
	movzbl	2147450880(%rcx), %ecx
	testb	%cl, %cl
	je	.L755
	movq	%rdx, %rsi
	andl	$7, %esi
	cmpb	%sil, %cl
	jg	.L755
	movq	%rdx, %rdi
	call	__asan_report_load1
.LVL316:
	.p2align 4,,10
	.p2align 3
.L1231:
.LBB408:
.LBB409:
	.loc 1 895 0
	cmpb	$112, %cl
	jne	.L753
	leaq	2(%rax), %rdi
	movq	%rdi, %rdx
	shrq	$3, %rdx
	movzbl	2147450880(%rdx), %edx
	testb	%dl, %dl
	je	.L754
	movq	%rdi, %rcx
.LVL317:
	andl	$7, %ecx
	cmpb	%cl, %dl
	jle	.L2174
.L754:
.LVL318:
.LBE409:
.LBE408:
	cmpb	$0, 2(%rax)
	jne	.L755
	leal	1(%r8), %ebx
	cmpl	%ebx, %r13d
	jle	.L755
.LVL319:
	.loc 1 898 0
	movslq	%ebx, %rax
.LVL320:
	leaq	(%r12,%rax,8), %rdi
.LVL321:
	movq	%rdi, %rax
	shrq	$3, %rax
	cmpb	$0, 2147450880(%rax)
	jne	.L2175
.LVL322:
.LBB411:
.LBB412:
	.file 2 "/usr/include/stdlib.h"
	.loc 2 286 0
	movq	(%rdi), %rdi
.LVL323:
	xorl	%esi, %esi
	movl	$10, %edx
	call	strtol
.LVL324:
.LBE412:
.LBE411:
	.loc 1 898 0
	movl	%ebx, %r8d
	movw	%ax, port(%rip)
	.loc 1 981 0
	addl	$1, %r8d
.LVL325:
	.loc 1 883 0
	cmpl	%r8d, %r13d
	jg	.L2176
.LVL326:
.L2144:
	movq	16(%rsp), %r15
	jmp	.L664
.LVL327:
.L753:
.LBB413:
.LBB414:
	.loc 1 900 0
	cmpb	$100, %cl
	jne	.L757
	leaq	2(%rax), %rdi
	movq	%rdi, %rsi
	shrq	$3, %rsi
	movzbl	2147450880(%rsi), %esi
	testb	%sil, %sil
	je	.L758
	movq	%rdi, %r10
	andl	$7, %r10d
	cmpb	%r10b, %sil
	jle	.L2177
.L758:
.LVL328:
.LBE414:
.LBE413:
	cmpb	$0, 2(%rax)
	jne	.L755
	leal	1(%r8), %esi
	cmpl	%esi, %r13d
	jle	.L759
.LVL329:
	.loc 1 903 0
	movslq	%esi, %rax
.LVL330:
	leaq	(%r12,%rax,8), %rdi
	movq	%rdi, %rax
	shrq	$3, %rax
	cmpb	$0, 2147450880(%rax)
	jne	.L2178
	movq	(%rdi), %rax
	movl	%esi, %r8d
	movq	%rax, dir(%rip)
	jmp	.L752
.LVL331:
	.p2align 4,,10
	.p2align 3
.L759:
	movq	%rdx, %rsi
	shrq	$3, %rsi
	movzbl	2147450880(%rsi), %esi
	testb	%sil, %sil
	jne	.L2179
.LVL332:
.L757:
.LBB416:
.LBB417:
	.loc 1 905 0
	cmpb	$114, %cl
	jne	.L755
	leaq	2(%rax), %rdi
	movq	%rdi, %rdx
	shrq	$3, %rdx
	movzbl	2147450880(%rdx), %edx
	testb	%dl, %dl
	je	.L762
	movq	%rdi, %rcx
.LVL333:
	andl	$7, %ecx
	cmpb	%cl, %dl
	jle	.L2180
.L762:
.LVL334:
.LBE417:
.LBE416:
	cmpb	$0, 2(%rax)
	jne	.L755
	.loc 1 907 0
	movl	$1, do_chroot(%rip)
	.loc 1 908 0
	movl	$1, no_symlink_check(%rip)
	jmp	.L752
.LVL335:
.L2179:
	movq	%rdx, %rdi
	andl	$7, %edi
	cmpb	%dil, %sil
	jg	.L757
	movq	%rdx, %rdi
	call	__asan_report_load1
.LVL336:
.L2177:
.LBB419:
.LBB415:
	.loc 1 900 0
	call	__asan_report_load1
.LVL337:
.L2178:
.LBE415:
.LBE419:
	.loc 1 903 0
	call	__asan_report_load8
.LVL338:
.L2180:
.LBB420:
.LBB418:
	.loc 1 905 0
	call	__asan_report_load1
.LVL339:
.L2174:
.LBE418:
.LBE420:
.LBB421:
.LBB410:
	.loc 1 895 0
	call	__asan_report_load1
.LVL340:
.L2163:
.LBE410:
.LBE421:
	.loc 1 883 0
	call	__asan_report_load8
.LVL341:
.L1230:
	.loc 1 882 0
	movl	$1, %r8d
.LVL342:
.L664:
	.loc 1 983 0
	cmpl	%r8d, %r13d
	jne	.L1210
.LBE397:
.LBE396:
.LBB657:
.LBB658:
	.loc 1 1247 0
	leaq	-28928(%r15), %rbx
.LBE658:
.LBE657:
	.loc 1 383 0
	call	tzset
.LVL343:
.LBB667:
.LBB659:
	.loc 1 1247 0
	movq	%rbx, %rax
	movq	%rbx, %rdi
	shrq	$3, %rax
	movzbl	2147450880(%rax), %ecx
	leaq	47(%rbx), %rax
	movq	%rax, %rdx
	shrq	$3, %rdx
	testb	%cl, %cl
	movzbl	2147450880(%rdx), %edx
	setne	%sil
	andl	$7, %edi
	cmpb	%dil, %cl
	setle	%cl
	testb	%cl, %sil
	jne	.L1249
	testb	%dl, %dl
	setne	%cl
	andl	$7, %eax
	cmpb	%al, %dl
	setle	%al
	testb	%al, %cl
	jne	.L1249
	xorl	%eax, %eax
	movq	%rbx, %rdi
	movl	$6, %ecx
	rep; stosq
	.loc 1 1251 0
	movzwl	port(%rip), %ecx
	leaq	-28832(%r15), %rbp
	movl	$.LC84, %edx
	movl	$10, %esi
	.loc 1 1249 0
	movl	$1, -28928(%r15)
	.loc 1 1250 0
	movl	$1, -28920(%r15)
	.loc 1 1251 0
	movq	%rbp, %rdi
	call	snprintf
.LVL344:
	.loc 1 1252 0
	leaq	-29120(%r15), %rax
	movq	hostname(%rip), %rdi
	movq	%rbx, %rdx
	movq	%rbp, %rsi
	movq	%rax, %rcx
	movq	%rax, 24(%rsp)
	call	getaddrinfo
.LVL345:
	testl	%eax, %eax
	movl	%eax, %ebx
.LVL346:
	jne	.L2181
.LVL347:
	.loc 1 1266 0
	movq	-29120(%r15), %rbp
.LVL348:
	testq	%rbp, %rbp
	je	.L838
	movq	%rbp, %rax
.LVL349:
	xorl	%ebx, %ebx
.LVL350:
	xorl	%r9d, %r9d
	jmp	.L844
.LVL351:
	.p2align 4,,10
	.p2align 3
.L839:
	.loc 1 1268 0
	movl	4(%rax), %edx
	cmpl	$2, %edx
	je	.L841
	cmpl	$10, %edx
	jne	.L840
	.loc 1 1271 0
	testq	%r9, %r9
	cmove	%rax, %r9
.LVL352:
.L840:
	.loc 1 1266 0
	leaq	40(%rax), %rdi
	movq	%rdi, %rdx
	shrq	$3, %rdx
	cmpb	$0, 2147450880(%rdx)
	jne	.L2182
	movq	40(%rax), %rax
.LVL353:
	testq	%rax, %rax
	je	.L2183
.LVL354:
.L844:
	.loc 1 1268 0
	leaq	4(%rax), %rdi
	movq	%rdi, %rdx
	shrq	$3, %rdx
	movzbl	2147450880(%rdx), %ecx
	testb	%cl, %cl
	je	.L839
	movq	%rdi, %rdx
	andl	$7, %edx
	addl	$3, %edx
	cmpb	%cl, %dl
	jl	.L839
	call	__asan_report_load4
.LVL355:
.L841:
	.loc 1 1275 0
	testq	%rbx, %rbx
	cmove	%rax, %rbx
.LVL356:
	jmp	.L840
.LVL357:
.L2183:
	.loc 1 1281 0
	testq	%r9, %r9
	je	.L845
	.loc 1 1285 0
	leaq	16(%r9), %rdx
	movq	%rdx, %rax
.LVL358:
	shrq	$3, %rax
	movzbl	2147450880(%rax), %ecx
	testb	%cl, %cl
	je	.L846
	movq	%rdx, %rax
	andl	$7, %eax
	addl	$3, %eax
	cmpb	%cl, %al
	jge	.L2184
.L846:
	movl	16(%r9), %r8d
	cmpq	$128, %r8
	ja	.L2185
	.loc 1 1293 0
	leaq	-28608(%r15), %r8
	movq	%r8, %rax
	movq	%r8, %r10
	shrq	$3, %rax
	movzbl	2147450880(%rax), %esi
	leaq	127(%r8), %rax
	movq	%rax, %rcx
	shrq	$3, %rcx
	testb	%sil, %sil
	movzbl	2147450880(%rcx), %ecx
	setne	%dil
.LVL359:
	andl	$7, %r10d
	cmpb	%r10b, %sil
	setle	%sil
	testb	%sil, %dil
	jne	.L1250
	testb	%cl, %cl
	setne	%sil
	andl	$7, %eax
	cmpb	%al, %cl
	setle	%al
	testb	%al, %sil
	jne	.L1250
	xorl	%eax, %eax
	movl	$16, %ecx
	movq	%r8, %rdi
	rep; stosq
	.loc 1 1294 0
	movq	%rdx, %rax
	shrq	$3, %rax
	movzbl	2147450880(%rax), %ecx
	testb	%cl, %cl
	je	.L850
	movq	%rdx, %rax
	andl	$7, %eax
	addl	$3, %eax
	cmpb	%cl, %al
	jge	.L2186
.L850:
	leaq	24(%r9), %rdi
	movl	16(%r9), %esi
	movq	%rdi, %rax
	shrq	$3, %rax
	cmpb	$0, 2147450880(%rax)
	jne	.L2187
	testq	%rsi, %rsi
	movq	24(%r9), %rdi
	je	.L854
	movq	%rdi, %rax
	movq	%rdi, %r11
	shrq	$3, %rax
	movzbl	2147450880(%rax), %r9d
.LVL360:
	leaq	-1(%rsi), %rax
	leaq	(%rdi,%rax), %rcx
	movq	%rcx, %rdx
.LVL361:
	shrq	$3, %rdx
	testb	%r9b, %r9b
	setne	%r10b
	andl	$7, %r11d
	movzbl	2147450880(%rdx), %edx
	cmpb	%r11b, %r9b
	setle	%r9b
	testb	%r9b, %r10b
	jne	.L1251
	testb	%dl, %dl
	setne	%r9b
	andl	$7, %ecx
	cmpb	%cl, %dl
	setle	%dl
	testb	%dl, %r9b
	jne	.L1251
	addq	%r8, %rax
	movq	%rax, %rdx
	shrq	$3, %rdx
	movzbl	2147450880(%rdx), %edx
	testb	%dl, %dl
	je	.L854
	andl	$7, %eax
	cmpb	%al, %dl
	jle	.L2188
.L854:
	movq	%rsi, %rdx
	movq	%rdi, %rsi
	movq	%r8, %rdi
	call	memmove
.LVL362:
	.loc 1 1298 0
	testq	%rbx, %rbx
	je	.L855
	.loc 1 1295 0
	movl	$1, (%rsp)
.LVL363:
.L1212:
	.loc 1 1302 0
	leaq	16(%rbx), %rdx
	movq	%rdx, %rax
	shrq	$3, %rax
	movzbl	2147450880(%rax), %ecx
	testb	%cl, %cl
	je	.L856
	movq	%rdx, %rax
	andl	$7, %eax
	addl	$3, %eax
	cmpb	%cl, %al
	jge	.L2189
.L856:
	movl	16(%rbx), %r8d
	cmpq	$128, %r8
	ja	.L2190
	.loc 1 1310 0
	leaq	-28768(%r15), %r8
	movq	%r8, %rax
	movq	%r8, %r9
	shrq	$3, %rax
	movzbl	2147450880(%rax), %esi
	leaq	127(%r8), %rax
	movq	%rax, %rcx
	shrq	$3, %rcx
	testb	%sil, %sil
	movzbl	2147450880(%rcx), %ecx
	setne	%dil
	andl	$7, %r9d
	cmpb	%r9b, %sil
	setle	%sil
	testb	%sil, %dil
	jne	.L1252
	testb	%cl, %cl
	setne	%sil
	andl	$7, %eax
	cmpb	%al, %cl
	setle	%al
	testb	%al, %sil
	jne	.L1252
	xorl	%eax, %eax
	movl	$16, %ecx
	movq	%r8, %rdi
	rep; stosq
	.loc 1 1311 0
	movq	%rdx, %rax
	shrq	$3, %rax
	movzbl	2147450880(%rax), %ecx
	testb	%cl, %cl
	je	.L860
	movq	%rdx, %rax
	andl	$7, %eax
	addl	$3, %eax
	cmpb	%cl, %al
	jge	.L2191
.L860:
	leaq	24(%rbx), %rdi
	movl	16(%rbx), %esi
	movq	%rdi, %rax
	shrq	$3, %rax
	cmpb	$0, 2147450880(%rax)
	jne	.L2192
	testq	%rsi, %rsi
	movq	24(%rbx), %rdi
	je	.L864
	movq	%rdi, %rax
	movq	%rdi, %r11
	shrq	$3, %rax
	movzbl	2147450880(%rax), %r9d
	leaq	-1(%rsi), %rax
	leaq	(%rdi,%rax), %rcx
	movq	%rcx, %rdx
	shrq	$3, %rdx
	testb	%r9b, %r9b
	setne	%r10b
	andl	$7, %r11d
	movzbl	2147450880(%rdx), %edx
	cmpb	%r11b, %r9b
	setle	%r9b
	testb	%r9b, %r10b
	jne	.L1253
	testb	%dl, %dl
	setne	%r9b
	andl	$7, %ecx
	cmpb	%cl, %dl
	setle	%dl
	testb	%dl, %r9b
	jne	.L1253
	addq	%r8, %rax
	movq	%rax, %rdx
	shrq	$3, %rdx
	movzbl	2147450880(%rdx), %edx
	testb	%dl, %dl
	je	.L864
	andl	$7, %eax
	cmpb	%al, %dl
	jle	.L2193
.L864:
	movq	%rsi, %rdx
	movq	%rdi, %rsi
	movq	%r8, %rdi
	call	memmove
.LVL364:
	.loc 1 1315 0
	movq	%rbp, %rdi
	call	freeaddrinfo
.LVL365:
	.loc 1 1312 0
	movl	$1, 8(%rsp)
.LVL366:
.L865:
.LBE659:
.LBE667:
	.loc 1 398 0
	movq	throttlefile(%rip), %r12
.LVL367:
	.loc 1 395 0
	movl	$0, numthrottles(%rip)
	.loc 1 396 0
	movl	$0, maxthrottles(%rip)
	.loc 1 397 0
	movq	$0, throttles(%rip)
	.loc 1 398 0
	testq	%r12, %r12
	je	.L867
.LVL368:
.LBB668:
.LBB669:
	.loc 1 1379 0
	movl	$.LC50, %esi
	movq	%r12, %rdi
	call	fopen
.LVL369:
	.loc 1 1380 0
	testq	%rax, %rax
	.loc 1 1379 0
	movq	%rax, %r14
.LVL370:
	.loc 1 1380 0
	je	.L2194
	.loc 1 1387 0
	leaq	-29056(%r15), %rdi
	leaq	-20160(%r15), %rbx
.LVL371:
	xorl	%esi, %esi
	.loc 1 1408 0
	leaq	-15104(%r15), %rbp
	.loc 1 1387 0
	call	gettimeofday
.LVL372:
	.loc 1 1397 0
	movq	%rbx, %rax
	shrq	$3, %rax
	movq	%rax, 32(%rsp)
	.loc 1 1408 0
	leaq	-29184(%r15), %rax
	movq	%rax, 16(%rsp)
	.loc 1 1424 0
	leaq	1(%rbp), %rax
	movq	%rax, 40(%rsp)
.LVL373:
.L869:
	.loc 1 1397 0
	movq	%rbx, %r13
	andl	$7, %r13d
.L904:
	.loc 1 1389 0
	movq	%r14, %rdx
	movl	$5000, %esi
	movq	%rbx, %rdi
	call	fgets
.LVL374:
	testq	%rax, %rax
	je	.L2195
	.loc 1 1392 0
	movl	$35, %esi
	movq	%rbx, %rdi
	call	strchr
.LVL375:
	.loc 1 1393 0
	testq	%rax, %rax
	je	.L870
	.loc 1 1394 0
	movq	%rax, %rdx
	shrq	$3, %rdx
	movzbl	2147450880(%rdx), %edx
	testb	%dl, %dl
	je	.L871
	movq	%rax, %rcx
	andl	$7, %ecx
	cmpb	%cl, %dl
	jle	.L2196
.L871:
	movb	$0, (%rax)
.L870:
	.loc 1 1397 0
	movq	%rbx, %rdx
.LVL376:
.L872:
	movl	(%rdx), %ecx
	addq	$4, %rdx
	leal	-16843009(%rcx), %eax
	notl	%ecx
	andl	%ecx, %eax
	andl	$-2139062144, %eax
	je	.L872
	movl	%eax, %ecx
	shrl	$16, %ecx
	testl	$32896, %eax
	cmove	%ecx, %eax
	leaq	2(%rdx), %rcx
	cmove	%rcx, %rdx
	addb	%al, %al
	movq	32(%rsp), %rax
	sbbq	$3, %rdx
	subq	%rbx, %rdx
	movzbl	2147450880(%rax), %eax
	testb	%al, %al
	je	.L874
	cmpb	%r13b, %al
	jle	.L2197
.L874:
	leaq	(%rbx,%rdx), %rdi
	movq	%rdi, %rax
	shrq	$3, %rax
	movzbl	2147450880(%rax), %eax
	testb	%al, %al
	je	.L875
	movq	%rdi, %rcx
	andl	$7, %ecx
	cmpb	%cl, %al
	jle	.L2198
.L875:
.LVL377:
	.loc 1 1398 0
	cmpl	$0, %edx
	jle	.L876
	.loc 1 1399 0
	subl	$1, %edx
.LVL378:
	movslq	%edx, %rax
	leaq	(%rbx,%rax), %rdi
	movq	%rdi, %rcx
	shrq	$3, %rcx
	movzbl	2147450880(%rcx), %ecx
	testb	%cl, %cl
	je	.L877
	movq	%rdi, %rsi
	andl	$7, %esi
	cmpb	%sil, %cl
	jle	.L2199
.L877:
	movzbl	-20160(%r15,%rax), %ecx
	.loc 1 1400 0
	cmpb	$13, %cl
	sete	%dil
	.loc 1 1399 0
	cmpb	$32, %cl
	sete	%sil
	.loc 1 1400 0
	orb	%sil, %dil
	jne	.L878
	.loc 1 1399 0
	subl	$9, %ecx
	.loc 1 1400 0
	cmpb	$1, %cl
	ja	.L885
.L878:
	leaq	(%rbx,%rax), %rcx
.LVL379:
.L1844:
	.loc 1 1401 0
	movq	%rcx, %rsi
	shrq	$3, %rsi
	movzbl	2147450880(%rsi), %esi
	testb	%sil, %sil
	je	.L881
	movq	%rcx, %rdi
	andl	$7, %edi
	cmpb	%dil, %sil
	jle	.L2200
.L881:
	.loc 1 1398 0
	testl	%edx, %edx
	.loc 1 1401 0
	movb	$0, -20160(%r15,%rax)
	.loc 1 1398 0
	je	.L904
	subq	$1, %rcx
	.loc 1 1399 0
	subl	$1, %edx
.LVL380:
	movq	%rcx, %rax
	shrq	$3, %rax
	movzbl	2147450880(%rax), %eax
	testb	%al, %al
	je	.L883
	movq	%rcx, %rsi
	andl	$7, %esi
	cmpb	%sil, %al
	jle	.L2201
.L883:
	movslq	%edx, %rax
	movzbl	-20160(%r15,%rax), %esi
	.loc 1 1400 0
	cmpb	$13, %sil
	sete	%r8b
	.loc 1 1399 0
	cmpb	$32, %sil
	sete	%dil
	.loc 1 1400 0
	orb	%dil, %r8b
	jne	.L1844
	.loc 1 1399 0
	subl	$9, %esi
	.loc 1 1400 0
	cmpb	$1, %sil
	jbe	.L1844
.LVL381:
.L885:
	.loc 1 1408 0
	movq	16(%rsp), %r8
	movq	24(%rsp), %rcx
	xorl	%eax, %eax
	movq	%rbp, %rdx
	movl	$.LC91, %esi
	movq	%rbx, %rdi
	call	__isoc99_sscanf
.LVL382:
	cmpl	$3, %eax
	jne	.L2131
.L879:
	.loc 1 1423 0
	cmpb	$47, -15104(%r15)
	jne	.L890
	.loc 1 1424 0
	movq	40(%rsp), %rsi
	movq	%rbp, %rdi
	call	strcpy
.LVL383:
	jmp	.L890
.LVL384:
	.p2align 4,,10
	.p2align 3
.L891:
	.loc 1 1426 0
	leaq	2(%rax), %rsi
	leaq	1(%rax), %rdi
	call	strcpy
.LVL385:
.L890:
	.loc 1 1425 0
	movl	$.LC95, %esi
	movq	%rbp, %rdi
	call	strstr
.LVL386:
	testq	%rax, %rax
	jne	.L891
	.loc 1 1429 0
	movslq	numthrottles(%rip), %rdx
	movl	maxthrottles(%rip), %eax
.LVL387:
	cmpl	%eax, %edx
	jl	.L892
	.loc 1 1431 0
	testl	%eax, %eax
	jne	.L893
	.loc 1 1434 0
	movl	$4800, %edi
	.loc 1 1433 0
	movl	$100, maxthrottles(%rip)
	.loc 1 1434 0
	call	malloc
.LVL388:
	movq	%rax, throttles(%rip)
.L894:
	.loc 1 1441 0
	testq	%rax, %rax
	je	.L895
	movslq	numthrottles(%rip), %rdx
.L896:
	.loc 1 1452 0
	leaq	(%rdx,%rdx,2), %r13
.LBB670:
.LBB671:
	.loc 1 1223 0
	movq	%rbp, %rdi
.LBE671:
.LBE670:
	.loc 1 1452 0
	salq	$4, %r13
	addq	%rax, %r13
.LVL389:
.LBB673:
.LBB672:
	.loc 1 1223 0
	call	__strdup
.LVL390:
	.loc 1 1224 0
	testq	%rax, %rax
	je	.L706
.LBE672:
.LBE673:
	.loc 1 1452 0
	movq	%r13, %rdx
	shrq	$3, %rdx
	cmpb	$0, 2147450880(%rdx)
	jne	.L2202
	movq	%rax, 0(%r13)
	.loc 1 1453 0
	movslq	numthrottles(%rip), %rax
.LVL391:
	movq	-29184(%r15), %rdx
	movq	%rax, %rcx
	leaq	(%rax,%rax,2), %rax
	salq	$4, %rax
	addq	throttles(%rip), %rax
	leaq	8(%rax), %rdi
	movq	%rdi, %rsi
	shrq	$3, %rsi
	cmpb	$0, 2147450880(%rsi)
	jne	.L2203
	.loc 1 1454 0
	leaq	16(%rax), %rdi
	.loc 1 1453 0
	movq	%rdx, 8(%rax)
	.loc 1 1454 0
	movq	-29120(%r15), %rdx
	movq	%rdi, %rsi
	shrq	$3, %rsi
	cmpb	$0, 2147450880(%rsi)
	jne	.L2204
	.loc 1 1455 0
	leaq	24(%rax), %rdi
	.loc 1 1454 0
	movq	%rdx, 16(%rax)
	.loc 1 1455 0
	movq	%rdi, %rdx
	shrq	$3, %rdx
	cmpb	$0, 2147450880(%rdx)
	jne	.L2205
	.loc 1 1456 0
	leaq	32(%rax), %rdi
	.loc 1 1455 0
	movq	$0, 24(%rax)
	.loc 1 1456 0
	movq	%rdi, %rdx
	shrq	$3, %rdx
	cmpb	$0, 2147450880(%rdx)
	jne	.L2206
	.loc 1 1457 0
	leaq	40(%rax), %rdi
	.loc 1 1456 0
	movq	$0, 32(%rax)
	.loc 1 1457 0
	movq	%rdi, %rdx
	shrq	$3, %rdx
	movzbl	2147450880(%rdx), %esi
	testb	%sil, %sil
	je	.L903
	movq	%rdi, %rdx
	andl	$7, %edx
	addl	$3, %edx
	cmpb	%sil, %dl
	jge	.L2207
.L903:
	movl	$0, 40(%rax)
	.loc 1 1459 0
	leal	1(%rcx), %eax
	movl	%eax, numthrottles(%rip)
	jmp	.L869
.LVL392:
	.p2align 4,,10
	.p2align 3
.L876:
	.loc 1 1404 0
	je	.L904
	jmp	.L885
.LVL393:
.L2131:
	.loc 1 1410 0
	movq	16(%rsp), %rcx
	xorl	%eax, %eax
	movq	%rbp, %rdx
	movl	$.LC92, %esi
	movq	%rbx, %rdi
	call	__isoc99_sscanf
.LVL394:
	cmpl	$2, %eax
	jne	.L886
	.loc 1 1411 0
	movq	$0, -29120(%r15)
	jmp	.L879
.LVL395:
.L2206:
	.loc 1 1456 0
	call	__asan_report_store8
.LVL396:
.L2205:
	.loc 1 1455 0
	call	__asan_report_store8
.LVL397:
.L2204:
	.loc 1 1454 0
	call	__asan_report_store8
.LVL398:
.L2203:
	.loc 1 1453 0
	call	__asan_report_store8
.LVL399:
.L2202:
	.loc 1 1452 0
	movq	%r13, %rdi
	call	__asan_report_store8
.LVL400:
.L706:
.LBE669:
.LBE668:
.LBB678:
.LBB649:
.LBB422:
.LBB423:
.LBB424:
.LBB425:
	call	__asan_handle_no_return
.LVL401:
	call	e_strdup.part.4
.LVL402:
.L895:
.LBE425:
.LBE424:
.LBE423:
.LBE422:
.LBE649:
.LBE678:
.LBB679:
.LBB674:
	.loc 1 1443 0
	xorl	%eax, %eax
	movl	$.LC96, %esi
	movl	$2, %edi
	call	syslog
.LVL403:
	.loc 1 1444 0
	movl	$stderr, %eax
	movq	argv0(%rip), %rdx
	shrq	$3, %rax
	cmpb	$0, 2147450880(%rax)
	jne	.L2208
	movq	stderr(%rip), %rdi
	movl	$.LC97, %esi
	xorl	%eax, %eax
	call	fprintf
.LVL404:
	.loc 1 1447 0
	call	__asan_handle_no_return
.LVL405:
	movl	$1, %edi
	call	exit
.LVL406:
.L893:
	.loc 1 1438 0
	addl	%eax, %eax
	.loc 1 1439 0
	movq	throttles(%rip), %rdi
	.loc 1 1438 0
	movl	%eax, maxthrottles(%rip)
	.loc 1 1439 0
	cltq
	leaq	(%rax,%rax,2), %rsi
	salq	$4, %rsi
	call	realloc
.LVL407:
	movq	%rax, throttles(%rip)
	jmp	.L894
.LVL408:
.L2193:
.LBE674:
.LBE679:
.LBB680:
.LBB660:
	.loc 1 1311 0
	movq	%r8, %rdi
	call	__asan_report_store_n
.LVL409:
.L1253:
	call	__asan_report_load_n
.LVL410:
.L2192:
	call	__asan_report_load8
.LVL411:
.L2196:
.LBE660:
.LBE680:
.LBB681:
.LBB675:
	.loc 1 1394 0
	movq	%rax, %rdi
	call	__asan_report_store1
.LVL412:
.L2194:
	.loc 1 1382 0
	movq	%r12, %rdx
	movl	$.LC90, %esi
	xorl	%eax, %eax
.LVL413:
	movl	$2, %edi
	call	syslog
.LVL414:
	.loc 1 1383 0
	movq	%r12, %rdi
	call	perror
.LVL415:
	.loc 1 1384 0
	call	__asan_handle_no_return
.LVL416:
	movl	$1, %edi
	call	exit
.LVL417:
.L2195:
	.loc 1 1461 0
	movq	%r14, %rdi
	call	fclose
.LVL418:
.L867:
.LBE675:
.LBE681:
	.loc 1 404 0
	call	getuid
.LVL419:
	testl	%eax, %eax
	.loc 1 357 0
	movl	$32767, %r12d
	.loc 1 356 0
	movl	$32767, %r13d
	.loc 1 404 0
	je	.L2209
.LVL420:
.L906:
	.loc 1 418 0
	movq	logfile(%rip), %rax
	testq	%rax, %rax
	je	.L1242
.LVL421:
.LBB682:
	.loc 1 420 0
	movl	$.LC100, %edi
	movl	$10, %ecx
	movq	%rax, %rsi
.LBE682:
	repz; cmpsb
	jne	.L912
	.loc 1 422 0
	movl	$1, no_log(%rip)
.LVL422:
	.loc 1 423 0
	xorl	%ebp, %ebp
.LVL423:
.L911:
	.loc 1 460 0
	movq	dir(%rip), %rdi
	testq	%rdi, %rdi
	je	.L922
	.loc 1 462 0
	call	chdir
.LVL424:
	testl	%eax, %eax
	js	.L2210
.L922:
	.loc 1 486 0
	leaq	-24320(%r15), %rbx
	movl	$4096, %esi
	movq	%rbx, %rdi
	call	getcwd
.LVL425:
	.loc 1 487 0
	movq	%rbx, %rdx
.L923:
	movl	(%rdx), %ecx
	addq	$4, %rdx
	leal	-16843009(%rcx), %eax
	notl	%ecx
	andl	%ecx, %eax
	andl	$-2139062144, %eax
	je	.L923
	movl	%eax, %ecx
	shrl	$16, %ecx
	testl	$32896, %eax
	cmove	%ecx, %eax
	leaq	2(%rdx), %rcx
	cmove	%rcx, %rdx
	addb	%al, %al
	movq	%rbx, %rax
	sbbq	$3, %rdx
	shrq	$3, %rax
	movzbl	2147450880(%rax), %eax
	subq	%rbx, %rdx
	testb	%al, %al
	je	.L925
	movq	%rbx, %rcx
	andl	$7, %ecx
	cmpb	%cl, %al
	jle	.L2211
.L925:
	leaq	(%rbx,%rdx), %rdi
	movq	%rdi, %rax
	shrq	$3, %rax
	movzbl	2147450880(%rax), %eax
	testb	%al, %al
	je	.L926
	movq	%rdi, %rcx
	andl	$7, %ecx
	cmpb	%cl, %al
	jle	.L2212
.L926:
	leaq	-1(%rdx), %rax
	leaq	(%rbx,%rax), %rdi
	movq	%rdi, %rcx
	shrq	$3, %rcx
	movzbl	2147450880(%rcx), %ecx
	testb	%cl, %cl
	je	.L927
	movq	%rdi, %rsi
	andl	$7, %esi
	cmpb	%sil, %cl
	jle	.L2213
.L927:
	cmpb	$47, -24320(%rax,%r15)
	je	.L928
	.loc 1 488 0
	leaq	(%rbx,%rdx), %rdi
	movl	$.LC108, %edx
	movq	%rdx, %rax
	shrq	$3, %rax
	movzbl	2147450880(%rax), %esi
	movl	$.LC108+1, %eax
	movq	%rax, %rcx
	shrq	$3, %rcx
	movzbl	2147450880(%rcx), %ecx
	testb	%sil, %sil
	setne	%r8b
	andl	$7, %edx
	cmpb	%dl, %sil
	setle	%dl
	testb	%dl, %r8b
	jne	.L1255
	testb	%cl, %cl
	setne	%dl
	andl	$7, %eax
	cmpb	%al, %cl
	setle	%al
	testb	%al, %dl
	jne	.L1255
	movq	%rdi, %rax
	movq	%rdi, %r8
	shrq	$3, %rax
	movzbl	2147450880(%rax), %ecx
	leaq	1(%rdi), %rax
	movq	%rax, %rdx
	shrq	$3, %rdx
	testb	%cl, %cl
	movzbl	2147450880(%rdx), %edx
	setne	%sil
	andl	$7, %r8d
	cmpb	%r8b, %cl
	setle	%cl
	testb	%cl, %sil
	jne	.L1256
	testb	%dl, %dl
	setne	%cl
	andl	$7, %eax
	cmpb	%al, %dl
	setle	%al
	testb	%al, %cl
	jne	.L1256
	movl	$47, %eax
	movw	%ax, (%rdi)
.L928:
	.loc 1 490 0
	movl	debug(%rip), %eax
	testl	%eax, %eax
	jne	.L933
	.loc 1 495 0
	movl	$stdin, %eax
	shrq	$3, %rax
	cmpb	$0, 2147450880(%rax)
	jne	.L2214
	movq	stdin(%rip), %rdi
	call	fclose
.LVL426:
	.loc 1 496 0
	movl	$stdout, %eax
	shrq	$3, %rax
	cmpb	$0, 2147450880(%rax)
	jne	.L2215
	movq	stdout(%rip), %rdi
	cmpq	%rdi, %rbp
	je	.L936
	.loc 1 497 0
	call	fclose
.LVL427:
.L936:
	.loc 1 498 0
	movl	$stderr, %eax
	shrq	$3, %rax
	cmpb	$0, 2147450880(%rax)
	jne	.L2216
	movq	stderr(%rip), %rdi
	call	fclose
.LVL428:
	.loc 1 502 0
	movl	$1, %esi
	movl	$1, %edi
	call	daemon
.LVL429:
	testl	%eax, %eax
	js	.L2217
.L938:
	.loc 1 533 0
	movq	pidfile(%rip), %rdi
	testq	%rdi, %rdi
	je	.L939
.LBB683:
	.loc 1 536 0
	movl	$.LC110, %esi
	call	fopen
.LVL430:
	.loc 1 537 0
	testq	%rax, %rax
	.loc 1 536 0
	movq	%rax, %r14
.LVL431:
	.loc 1 537 0
	je	.L2218
	.loc 1 542 0
	call	getpid
.LVL432:
	movq	%r14, %rdi
	movl	%eax, %edx
	movl	$.LC111, %esi
	xorl	%eax, %eax
	call	fprintf
.LVL433:
	.loc 1 543 0
	movq	%r14, %rdi
	call	fclose
.LVL434:
.L939:
.LBE683:
	.loc 1 549 0
	call	fdwatch_get_nfiles
.LVL435:
	.loc 1 550 0
	testl	%eax, %eax
	.loc 1 549 0
	movl	%eax, max_connects(%rip)
	.loc 1 550 0
	js	.L2219
	.loc 1 555 0
	subl	$10, %eax
	movl	%eax, max_connects(%rip)
	.loc 1 558 0
	movl	do_chroot(%rip), %eax
	testl	%eax, %eax
	jne	.L2220
.L942:
	.loc 1 598 0
	movq	data_dir(%rip), %rdi
	testq	%rdi, %rdi
	je	.L958
	.loc 1 600 0
	call	chdir
.LVL436:
	testl	%eax, %eax
	js	.L2221
.L958:
	.loc 1 610 0
	movl	$handle_term, %esi
	movl	$15, %edi
	xorl	%eax, %eax
	call	sigset
.LVL437:
	.loc 1 611 0
	movl	$handle_term, %esi
	movl	$2, %edi
	xorl	%eax, %eax
	call	sigset
.LVL438:
	.loc 1 612 0
	movl	$handle_chld, %esi
	movl	$17, %edi
	xorl	%eax, %eax
	call	sigset
.LVL439:
	.loc 1 613 0
	movl	$1, %esi
	movl	$13, %edi
	xorl	%eax, %eax
	call	sigset
.LVL440:
	.loc 1 614 0
	movl	$handle_hup, %esi
	movl	$1, %edi
	xorl	%eax, %eax
	call	sigset
.LVL441:
	.loc 1 615 0
	movl	$handle_usr1, %esi
	movl	$10, %edi
	xorl	%eax, %eax
	call	sigset
.LVL442:
	.loc 1 616 0
	movl	$handle_usr2, %esi
	movl	$12, %edi
	xorl	%eax, %eax
	call	sigset
.LVL443:
	.loc 1 617 0
	movl	$handle_alrm, %esi
	movl	$14, %edi
	xorl	%eax, %eax
	call	sigset
.LVL444:
	.loc 1 631 0
	movl	$360, %edi
	.loc 1 628 0
	movl	$0, got_hup(%rip)
	.loc 1 629 0
	movl	$0, got_usr1(%rip)
	.loc 1 630 0
	movl	$0, watchdog_flag(%rip)
	.loc 1 631 0
	call	alarm
.LVL445:
	.loc 1 634 0
	call	tmr_init
.LVL446:
	.loc 1 639 0
	movl	(%rsp), %r11d
	movl	8(%rsp), %r14d
	leaq	-28608(%r15), %rdx
	xorl	%eax, %eax
	leaq	-28768(%r15), %rsi
	movzwl	port(%rip), %ecx
	movl	cgi_limit(%rip), %r9d
	movq	cgi_pattern(%rip), %r8
	testl	%r11d, %r11d
	movq	hostname(%rip), %rdi
	cmove	%rax, %rdx
	testl	%r14d, %r14d
	cmove	%rax, %rsi
	movl	no_empty_referers(%rip), %eax
	pushq	%rax
	.cfi_def_cfa_offset 29384
	movl	do_global_passwd(%rip), %eax
	pushq	local_pattern(%rip)
	.cfi_def_cfa_offset 29392
	pushq	url_pattern(%rip)
	.cfi_def_cfa_offset 29400
	pushq	%rax
	.cfi_def_cfa_offset 29408
	movl	do_vhost(%rip), %eax
	pushq	%rax
	.cfi_def_cfa_offset 29416
	movl	no_symlink_check(%rip), %eax
	pushq	%rax
	.cfi_def_cfa_offset 29424
	movl	no_log(%rip), %eax
	pushq	%rbp
	.cfi_def_cfa_offset 29432
	pushq	%rax
	.cfi_def_cfa_offset 29440
	movl	max_age(%rip), %eax
	pushq	%rbx
	.cfi_def_cfa_offset 29448
	pushq	%rax
	.cfi_def_cfa_offset 29456
	pushq	p3p(%rip)
	.cfi_def_cfa_offset 29464
	pushq	charset(%rip)
	.cfi_def_cfa_offset 29472
	call	httpd_initialize
.LVL447:
	.loc 1 645 0
	addq	$96, %rsp
	.cfi_def_cfa_offset 29376
	testq	%rax, %rax
	.loc 1 639 0
	movq	%rax, hs(%rip)
	.loc 1 645 0
	je	.L2222
	.loc 1 649 0
	movq	JunkClientData(%rip), %rdx
	xorl	%edi, %edi
	movl	$1, %r8d
	movl	$120000, %ecx
	movl	$occasional, %esi
	call	tmr_create
.LVL448:
	testq	%rax, %rax
	je	.L2223
	.loc 1 655 0
	movq	JunkClientData(%rip), %rdx
	xorl	%edi, %edi
	movl	$1, %r8d
	movl	$5000, %ecx
	movl	$idle, %esi
	call	tmr_create
.LVL449:
	testq	%rax, %rax
	je	.L2224
	.loc 1 660 0
	movl	numthrottles(%rip), %r10d
	testl	%r10d, %r10d
	jle	.L964
	.loc 1 663 0
	movq	JunkClientData(%rip), %rdx
	xorl	%edi, %edi
	movl	$1, %r8d
	movl	$2000, %ecx
	movl	$update_throttles, %esi
	call	tmr_create
.LVL450:
	testq	%rax, %rax
	je	.L2225
.L964:
	.loc 1 671 0
	movq	JunkClientData(%rip), %rdx
	xorl	%edi, %edi
	movl	$1, %r8d
	movl	$3600000, %ecx
	movl	$show_stats, %esi
	call	tmr_create
.LVL451:
	testq	%rax, %rax
	je	.L2226
	.loc 1 677 0
	xorl	%edi, %edi
	call	time
.LVL452:
	.loc 1 678 0
	movq	$0, stats_connections(%rip)
	.loc 1 677 0
	movq	%rax, stats_time(%rip)
	movq	%rax, start_time(%rip)
	.loc 1 679 0
	movq	$0, stats_bytes(%rip)
	.loc 1 680 0
	movl	$0, stats_simultaneous(%rip)
	.loc 1 683 0
	call	getuid
.LVL453:
	testl	%eax, %eax
	jne	.L967
	.loc 1 686 0
	xorl	%esi, %esi
	xorl	%edi, %edi
	call	setgroups
.LVL454:
	testl	%eax, %eax
	js	.L2227
	.loc 1 692 0
	movl	%r12d, %edi
	call	setgid
.LVL455:
	testl	%eax, %eax
	js	.L2228
	.loc 1 698 0
	movq	user(%rip), %rdi
	movl	%r12d, %esi
	call	initgroups
.LVL456:
	testl	%eax, %eax
	jns	.L970
	.loc 1 699 0
	movl	$.LC126, %esi
	movl	$4, %edi
	xorl	%eax, %eax
	call	syslog
.LVL457:
.L970:
	.loc 1 705 0
	movl	%r13d, %edi
	call	setuid
.LVL458:
	testl	%eax, %eax
	js	.L2229
	.loc 1 711 0
	movl	do_chroot(%rip), %r9d
	testl	%r9d, %r9d
	jne	.L967
	.loc 1 712 0
	movl	$.LC128, %esi
	movl	$4, %edi
	xorl	%eax, %eax
	call	syslog
.LVL459:
.L967:
	.loc 1 718 0
	movslq	max_connects(%rip), %rax
	leaq	(%rax,%rax,8), %rbx
	movq	%rax, %rbp
.LVL460:
	salq	$4, %rbx
	movq	%rbx, %rdi
	call	malloc
.LVL461:
	.loc 1 719 0
	testq	%rax, %rax
	.loc 1 718 0
	movq	%rax, connects(%rip)
	.loc 1 719 0
	je	.L973
.LVL462:
	.loc 1 724 0 discriminator 1
	xorl	%ecx, %ecx
	testl	%ebp, %ebp
	movq	%rax, %rdx
	jle	.L982
.LVL463:
.L1834:
	.loc 1 726 0 discriminator 3
	movq	%rdx, %rsi
	shrq	$3, %rsi
	movzbl	2147450880(%rsi), %edi
	testb	%dil, %dil
	je	.L978
	movq	%rdx, %rsi
	andl	$7, %esi
	addl	$3, %esi
	cmpb	%dil, %sil
	jge	.L2230
.L978:
	leaq	4(%rdx), %rdi
	.loc 1 727 0 discriminator 3
	addl	$1, %ecx
.LVL464:
	.loc 1 726 0 discriminator 3
	movl	$0, (%rdx)
	.loc 1 727 0 discriminator 3
	movq	%rdi, %rsi
	shrq	$3, %rsi
	movzbl	2147450880(%rsi), %r8d
	testb	%r8b, %r8b
	je	.L979
	movq	%rdi, %rsi
	andl	$7, %esi
	addl	$3, %esi
	cmpb	%r8b, %sil
	jge	.L2231
.L979:
	leaq	8(%rdx), %rdi
	movl	%ecx, 4(%rdx)
	.loc 1 728 0 discriminator 3
	movq	%rdi, %rsi
	shrq	$3, %rsi
	cmpb	$0, 2147450880(%rsi)
	jne	.L2232
	movq	$0, 8(%rdx)
.LVL465:
	addq	$144, %rdx
	.loc 1 724 0 discriminator 3
	cmpl	%ebp, %ecx
	jne	.L1834
.LVL466:
.L982:
	.loc 1 730 0
	leaq	-144(%rax,%rbx), %rdx
	leaq	4(%rdx), %rdi
	movq	%rdi, %rax
	shrq	$3, %rax
	movzbl	2147450880(%rax), %ecx
	testb	%cl, %cl
	je	.L975
	movq	%rdi, %rax
	andl	$7, %eax
	addl	$3, %eax
	cmpb	%cl, %al
	jge	.L2233
.L975:
	.loc 1 735 0
	movq	hs(%rip), %rax
	.loc 1 730 0
	movl	$-1, 4(%rdx)
	.loc 1 731 0
	movl	$0, first_free_connect(%rip)
	.loc 1 732 0
	movl	$0, num_connects(%rip)
	.loc 1 733 0
	movl	$0, httpd_conn_count(%rip)
	.loc 1 735 0
	testq	%rax, %rax
	je	.L983
	.loc 1 737 0
	leaq	72(%rax), %rdi
	movq	%rdi, %rdx
	shrq	$3, %rdx
	movzbl	2147450880(%rdx), %ecx
	testb	%cl, %cl
	je	.L984
	movq	%rdi, %rdx
	andl	$7, %edx
	addl	$3, %edx
	cmpb	%cl, %dl
	jge	.L2234
.L984:
	movl	72(%rax), %edi
	cmpl	$-1, %edi
	je	.L985
	.loc 1 738 0
	xorl	%edx, %edx
	xorl	%esi, %esi
	call	fdwatch_add_fd
.LVL467:
	movq	hs(%rip), %rax
.L985:
	.loc 1 739 0
	leaq	76(%rax), %rdi
	movq	%rdi, %rdx
	shrq	$3, %rdx
	movzbl	2147450880(%rdx), %ecx
	testb	%cl, %cl
	je	.L986
	movq	%rdi, %rdx
	andl	$7, %edx
	addl	$3, %edx
	cmpb	%cl, %dl
	jge	.L2235
.L986:
	movl	76(%rax), %edi
	cmpl	$-1, %edi
	je	.L983
	.loc 1 740 0
	xorl	%edx, %edx
	xorl	%esi, %esi
	call	fdwatch_add_fd
.LVL468:
.L983:
	.loc 1 744 0
	leaq	-29056(%r15), %rax
	movq	%rax, %rdi
	movq	%rax, (%rsp)
	call	tmr_prepare_timeval
.LVL469:
.LBB684:
.LBB685:
.LBB686:
	.loc 1 1740 0
	leaq	-28992(%r15), %rax
	movq	%r15, 8(%rsp)
	movq	%rax, 72(%rsp)
.LBE686:
.LBE685:
.LBE684:
.LBB696:
.LBB697:
	.loc 1 1873 0
	leaq	-28448(%r15), %rax
	movq	%rax, 80(%rsp)
.LBE697:
.LBE696:
.LBB700:
.LBB701:
	.loc 1 1652 0
	movl	$httpd_err503form, %eax
	shrq	$3, %rax
	movq	%rax, 88(%rsp)
.LVL470:
.L987:
.LBE701:
.LBE700:
	.loc 1 745 0
	movl	terminate(%rip), %edx
	testl	%edx, %edx
	je	.L1199
	.loc 1 745 0 is_stmt 0 discriminator 1
	movl	num_connects(%rip), %eax
	testl	%eax, %eax
	jle	.L2236
.L1199:
	.loc 1 748 0 is_stmt 1
	movl	got_hup(%rip), %eax
	testl	%eax, %eax
	jne	.L2237
.L988:
	.loc 1 755 0
	movq	(%rsp), %rdi
	call	tmr_mstimeout
.LVL471:
	movq	%rax, %rdi
	call	fdwatch
.LVL472:
	.loc 1 756 0
	testl	%eax, %eax
	.loc 1 755 0
	movl	%eax, %ebx
.LVL473:
	.loc 1 756 0
	js	.L2238
	.loc 1 763 0
	movq	(%rsp), %rdi
	call	tmr_prepare_timeval
.LVL474:
	.loc 1 765 0
	testl	%ebx, %ebx
	je	.L2239
	.loc 1 773 0
	movq	hs(%rip), %rax
	testq	%rax, %rax
	je	.L1012
	.loc 1 773 0 is_stmt 0 discriminator 1
	leaq	76(%rax), %rdi
	movq	%rdi, %rdx
	shrq	$3, %rdx
	movzbl	2147450880(%rdx), %ecx
	testb	%cl, %cl
	je	.L1003
	movq	%rdi, %rdx
	andl	$7, %edx
	addl	$3, %edx
	cmpb	%cl, %dl
	jge	.L2240
.L1003:
	movl	76(%rax), %edi
	cmpl	$-1, %edi
	je	.L1004
	.loc 1 774 0 is_stmt 1 discriminator 2
	call	fdwatch_check_fd
.LVL475:
	.loc 1 773 0 discriminator 2
	testl	%eax, %eax
	jne	.L1005
.L1009:
	.loc 1 783 0
	movq	hs(%rip), %rax
	testq	%rax, %rax
	je	.L1012
.L1004:
	.loc 1 783 0 is_stmt 0 discriminator 1
	leaq	72(%rax), %rdi
	movq	%rdi, %rdx
	shrq	$3, %rdx
	movzbl	2147450880(%rdx), %ecx
	testb	%cl, %cl
	je	.L1010
	movq	%rdi, %rdx
	andl	$7, %edx
	addl	$3, %edx
	cmpb	%cl, %dl
	jge	.L2241
.L1010:
	movl	72(%rax), %edi
	cmpl	$-1, %edi
	je	.L1012
	.loc 1 784 0 is_stmt 1 discriminator 2
	call	fdwatch_check_fd
.LVL476:
	.loc 1 783 0 discriminator 2
	testl	%eax, %eax
	jne	.L2242
.LVL477:
.L1012:
	.loc 1 795 0
	call	fdwatch_get_next_client_data
.LVL478:
	cmpq	$-1, %rax
	movq	%rax, %r15
.LVL479:
	je	.L2243
	.loc 1 797 0
	testq	%r15, %r15
	je	.L1012
	.loc 1 799 0
	leaq	8(%r15), %r14
	movq	%r14, %rax
.LVL480:
	shrq	$3, %rax
	cmpb	$0, 2147450880(%rax)
	jne	.L2244
	movq	8(%r15), %rdx
.LVL481:
	.loc 1 800 0
	leaq	704(%rdx), %rdi
	movq	%rdi, %rax
	shrq	$3, %rax
	movzbl	2147450880(%rax), %ecx
	testb	%cl, %cl
	je	.L1014
	movq	%rdi, %rax
	andl	$7, %eax
	addl	$3, %eax
	cmpb	%cl, %al
	jge	.L2245
.L1014:
	movl	704(%rdx), %edi
	call	fdwatch_check_fd
.LVL482:
	testl	%eax, %eax
	je	.L2153
	.loc 1 804 0
	movq	%r15, %rax
	shrq	$3, %rax
	movzbl	2147450880(%rax), %edx
	testb	%dl, %dl
	je	.L1017
	movq	%r15, %rax
	andl	$7, %eax
	addl	$3, %eax
	cmpb	%dl, %al
	jge	.L2246
.L1017:
	movl	(%r15), %eax
	cmpl	$2, %eax
	je	.L1018
	cmpl	$4, %eax
	je	.L1019
	cmpl	$1, %eax
	jne	.L1012
.LVL483:
.LBB746:
.LBB738:
	.loc 1 1589 0
	movq	%r14, %rax
	shrq	$3, %rax
	cmpb	$0, 2147450880(%rax)
	jne	.L2247
	movq	8(%r15), %rbx
.LVL484:
	.loc 1 1592 0
	leaq	160(%rbx), %rbp
	movq	%rbp, %rcx
	shrq	$3, %rcx
	cmpb	$0, 2147450880(%rcx)
	jne	.L2248
	leaq	152(%rbx), %r13
	movq	160(%rbx), %rax
	movq	%r13, %r8
	shrq	$3, %r8
	cmpb	$0, 2147450880(%r8)
	jne	.L2249
	movq	152(%rbx), %rdx
	leaq	144(%rbx), %r12
	cmpq	%rdx, %rax
	jb	.L1024
	.loc 1 1594 0
	cmpq	$5000, %rdx
	jbe	.L1025
	.loc 1 1596 0
	movl	$httpd_err400form, %eax
	shrq	$3, %rax
	cmpb	$0, 2147450880(%rax)
	jne	.L2250
	movl	$httpd_err400title, %eax
	movq	httpd_err400form(%rip), %r8
	shrq	$3, %rax
	cmpb	$0, 2147450880(%rax)
	jne	.L2251
	movq	httpd_err400title(%rip), %rdx
	movl	$.LC28, %r9d
	movl	$400, %esi
	movq	%r9, %rcx
	movq	%rbx, %rdi
	call	httpd_send_err
.LVL485:
.LBB702:
.LBB703:
	.loc 1 1987 0
	movq	%r14, %rax
	shrq	$3, %rax
	cmpb	$0, 2147450880(%rax)
	jne	.L2252
.LVL486:
.L1028:
	movq	8(%r15), %rdi
	call	httpd_write_response
.LVL487:
.L2153:
	.loc 1 1990 0
	movq	(%rsp), %rsi
	movq	%r15, %rdi
	call	clear_connection
.LVL488:
	jmp	.L1012
.LVL489:
.L2228:
.LBE703:
.LBE702:
.LBE738:
.LBE746:
	.loc 1 694 0
	movl	$2, %edi
	movl	$.LC125, %esi
	xorl	%eax, %eax
	call	syslog
.LVL490:
	.loc 1 695 0
	call	__asan_handle_no_return
.LVL491:
	movl	$1, %edi
	call	exit
.LVL492:
.L973:
	.loc 1 721 0
	movl	$2, %edi
	movl	$.LC129, %esi
	xorl	%eax, %eax
	call	syslog
.LVL493:
	.loc 1 722 0
	call	__asan_handle_no_return
.LVL494:
	movl	$1, %edi
	call	exit
.LVL495:
.L2230:
	.loc 1 726 0
	movq	%rdx, %rdi
	call	__asan_report_store4
.LVL496:
.L1019:
.LBB747:
.LBB698:
	.loc 1 1873 0
	movq	%r14, %rax
	shrq	$3, %rax
	cmpb	$0, 2147450880(%rax)
	jne	.L2253
	movq	8(%r15), %rdx
	leaq	704(%rdx), %rdi
	movq	%rdi, %rax
	shrq	$3, %rax
	movzbl	2147450880(%rax), %ecx
	testb	%cl, %cl
	je	.L1188
	movq	%rdi, %rax
	andl	$7, %eax
	addl	$3, %eax
	cmpb	%cl, %al
	jge	.L2254
.L1188:
	movl	704(%rdx), %edi
	movq	80(%rsp), %rsi
	movl	$4096, %edx
	call	read
.LVL497:
	.loc 1 1874 0
	testl	%eax, %eax
	js	.L2255
	.loc 1 1876 0
	jne	.L1012
.LVL498:
.L1192:
	.loc 1 1877 0
	movq	(%rsp), %rsi
	movq	%r15, %rdi
	call	really_clear_connection
.LVL499:
	jmp	.L1012
.L2253:
	.loc 1 1873 0
	movq	%r14, %rdi
	call	__asan_report_load8
.LVL500:
.L2255:
	.loc 1 1874 0
	call	__errno_location
.LVL501:
	movq	%rax, %rdx
	shrq	$3, %rdx
	movzbl	2147450880(%rdx), %ecx
	testb	%cl, %cl
	je	.L1190
	movq	%rax, %rdx
	andl	$7, %edx
	addl	$3, %edx
	cmpb	%cl, %dl
	jge	.L2256
.L1190:
	movl	(%rax), %eax
	cmpl	$11, %eax
	je	.L1012
	cmpl	$4, %eax
	jne	.L1192
	jmp	.L1012
.L2256:
	movq	%rax, %rdi
	call	__asan_report_load4
.LVL502:
.L1018:
.LBE698:
.LBE747:
.LBB748:
.LBB694:
	.loc 1 1713 0
	movq	%r14, %rax
	shrq	$3, %rax
	cmpb	$0, 2147450880(%rax)
	jne	.L2257
	.loc 1 1716 0
	leaq	64(%r15), %rax
	.loc 1 1713 0
	movq	8(%r15), %rbx
.LVL503:
	.loc 1 1716 0
	movq	%rax, 16(%rsp)
	shrq	$3, %rax
	cmpb	$0, 2147450880(%rax)
	jne	.L2258
	movq	64(%r15), %rdx
	.loc 1 1717 0
	movl	$1000000000, %eax
	.loc 1 1716 0
	cmpq	$-1, %rdx
	je	.L1116
	.loc 1 1719 0
	leaq	3(%rdx), %rax
	testq	%rdx, %rdx
	cmovns	%rdx, %rax
	sarq	$2, %rax
.LVL504:
.L1116:
	.loc 1 1722 0
	leaq	472(%rbx), %rcx
	movq	%rcx, 24(%rsp)
	shrq	$3, %rcx
	cmpb	$0, 2147450880(%rcx)
	jne	.L2259
	movq	472(%rbx), %rdx
	testq	%rdx, %rdx
	jne	.L1118
	.loc 1 1727 0
	leaq	128(%r15), %rbp
	movq	%rbp, %rdx
	shrq	$3, %rdx
	cmpb	$0, 2147450880(%rdx)
	jne	.L2260
	leaq	136(%r15), %r11
	movq	128(%r15), %rdx
	movq	%r11, %rcx
	shrq	$3, %rcx
	cmpb	$0, 2147450880(%rcx)
	jne	.L2261
	movq	136(%r15), %rsi
	.loc 1 1726 0
	leaq	712(%rbx), %rdi
	.loc 1 1727 0
	subq	%rsi, %rdx
	.loc 1 1725 0
	cmpq	%rdx, %rax
	cmovbe	%rax, %rdx
	.loc 1 1726 0
	movq	%rdi, %rax
.LVL505:
	shrq	$3, %rax
	cmpb	$0, 2147450880(%rax)
	jne	.L2262
	.loc 1 1725 0
	leaq	704(%rbx), %r12
	addq	712(%rbx), %rsi
	movq	%r12, %rax
	shrq	$3, %rax
	movzbl	2147450880(%rax), %eax
	testb	%al, %al
	je	.L1122
	movq	%r12, %rcx
	andl	$7, %ecx
	addl	$3, %ecx
	cmpb	%al, %cl
	jge	.L2263
.L1122:
	movl	704(%rbx), %edi
	movq	%r11, 32(%rsp)
	call	write
.LVL506:
	movq	32(%rsp), %r11
	movslq	%eax, %rcx
.LVL507:
.L1123:
	.loc 1 1743 0
	testl	%ecx, %ecx
	js	.L2264
	.loc 1 1746 0
	je	.L1133
	.loc 1 1795 0
	leaq	88(%r15), %rdi
	movq	8(%rsp), %rax
	movq	%rdi, %rdx
	shrq	$3, %rdx
	movq	-29056(%rax), %rax
	cmpb	$0, 2147450880(%rdx)
	jne	.L2265
	movq	%rax, 88(%r15)
	.loc 1 1797 0
	movq	24(%rsp), %rax
	shrq	$3, %rax
	cmpb	$0, 2147450880(%rax)
	jne	.L2266
	movq	472(%rbx), %rax
	testq	%rax, %rax
	je	.L1149
	.loc 1 1800 0
	movslq	%ecx, %r10
	cmpq	%r10, %rax
	ja	.L2267
	.loc 1 1811 0
	subl	%eax, %ecx
.LVL508:
	.loc 1 1812 0
	movq	$0, 472(%rbx)
	movslq	%ecx, %rcx
.LVL509:
.L1149:
	.loc 1 1816 0
	movq	%r11, %rax
	shrq	$3, %rax
	cmpb	$0, 2147450880(%rax)
	jne	.L2268
	.loc 1 1817 0
	movq	%r14, %rax
	.loc 1 1816 0
	movq	%rcx, %r8
	addq	136(%r15), %r8
	.loc 1 1817 0
	shrq	$3, %rax
	cmpb	$0, 2147450880(%rax)
	.loc 1 1816 0
	movq	%r8, 136(%r15)
	.loc 1 1817 0
	jne	.L2269
	movq	8(%r15), %rdx
	leaq	200(%rdx), %rdi
	movq	%rdi, %rax
	shrq	$3, %rax
	cmpb	$0, 2147450880(%rax)
	jne	.L2270
	.loc 1 1818 0
	leaq	56(%r15), %rdi
	.loc 1 1817 0
	movq	%rcx, %rax
	addq	200(%rdx), %rax
	.loc 1 1818 0
	movq	%rdi, %rsi
	shrq	$3, %rsi
	movzbl	2147450880(%rsi), %r9d
	.loc 1 1817 0
	movq	%rax, 200(%rdx)
.LVL510:
	.loc 1 1818 0
	testb	%r9b, %r9b
	je	.L1161
	movq	%rdi, %rsi
	andl	$7, %esi
	addl	$3, %esi
	cmpb	%r9b, %sil
	jge	.L2271
.L1161:
	movl	56(%r15), %esi
	testl	%esi, %esi
	jle	.L1169
	subl	$1, %esi
	movq	throttles(%rip), %r10
	leaq	16(%r15), %r13
	leaq	20(%r15,%rsi,4), %r11
.LVL511:
.L1168:
	.loc 1 1819 0
	movq	%r13, %rsi
	shrq	$3, %rsi
	movzbl	2147450880(%rsi), %edi
	testb	%dil, %dil
	je	.L1166
	movq	%r13, %rsi
	andl	$7, %esi
	addl	$3, %esi
	cmpb	%dil, %sil
	jge	.L2272
.L1166:
	movslq	0(%r13), %rsi
	leaq	(%rsi,%rsi,2), %rsi
	salq	$4, %rsi
	addq	%r10, %rsi
	leaq	32(%rsi), %rdi
	movq	%rdi, %r9
	shrq	$3, %r9
	cmpb	$0, 2147450880(%r9)
	jne	.L2273
	addq	$4, %r13
	addq	%rcx, 32(%rsi)
	.loc 1 1818 0
	cmpq	%r11, %r13
	jne	.L1168
.L1169:
	.loc 1 1822 0
	movq	%rbp, %rcx
	shrq	$3, %rcx
	cmpb	$0, 2147450880(%rcx)
	jne	.L2274
	cmpq	128(%r15), %r8
	jge	.L2275
	.loc 1 1830 0
	leaq	112(%r15), %rdi
	movq	%rdi, %rdx
	shrq	$3, %rdx
	cmpb	$0, 2147450880(%rdx)
	jne	.L2276
	movq	112(%r15), %rdx
	cmpq	$100, %rdx
	jle	.L1171
	.loc 1 1831 0
	subq	$100, %rdx
	movq	%rdx, 112(%r15)
.L1171:
	.loc 1 1834 0
	movq	16(%rsp), %rdx
	shrq	$3, %rdx
	cmpb	$0, 2147450880(%rdx)
	jne	.L2277
	movq	64(%r15), %rcx
	cmpq	$-1, %rcx
	je	.L1012
	.loc 1 1836 0
	leaq	80(%r15), %rdi
	movq	8(%rsp), %rsi
	movq	%rdi, %rdx
	shrq	$3, %rdx
	movq	-29056(%rsi), %rbp
	cmpb	$0, 2147450880(%rdx)
	jne	.L2278
.LVL512:
	.loc 1 1838 0
	subq	80(%r15), %rbp
.LVL513:
	movl	$1, %edx
	cmove	%rdx, %rbp
.LVL514:
	.loc 1 1839 0
	cqto
	idivq	%rbp
	cmpq	%rax, %rcx
	jge	.L1012
	.loc 1 1841 0
	movq	%r15, %rax
	shrq	$3, %rax
	movzbl	2147450880(%rax), %edx
	testb	%dl, %dl
	je	.L1177
	movq	%r15, %rax
	andl	$7, %eax
	addl	$3, %eax
	cmpb	%dl, %al
	jge	.L2279
.L1177:
	.loc 1 1842 0
	movq	%r12, %rax
	.loc 1 1841 0
	movl	$3, (%r15)
	.loc 1 1842 0
	shrq	$3, %rax
	movzbl	2147450880(%rax), %edx
	testb	%dl, %dl
	je	.L1178
	movq	%r12, %rax
	andl	$7, %eax
	addl	$3, %eax
	cmpb	%dl, %al
	jge	.L2280
.L1178:
	movl	704(%rbx), %edi
	call	fdwatch_del_fd
.LVL515:
	.loc 1 1846 0
	movq	%r14, %rax
	shrq	$3, %rax
	cmpb	$0, 2147450880(%rax)
	jne	.L2281
	movq	8(%r15), %rax
	leaq	200(%rax), %rdi
	movq	%rdi, %rdx
	shrq	$3, %rdx
	cmpb	$0, 2147450880(%rdx)
	jne	.L2282
	movq	16(%rsp), %rdx
	movq	200(%rax), %rax
	shrq	$3, %rdx
	cmpb	$0, 2147450880(%rdx)
	jne	.L2283
	cqto
	idivq	64(%r15)
	movl	%eax, %ebx
.LVL516:
	subl	%ebp, %ebx
.LVL517:
	.loc 1 1848 0
	leaq	96(%r15), %rbp
.LVL518:
	movq	%rbp, %rax
	shrq	$3, %rax
	cmpb	$0, 2147450880(%rax)
	jne	.L2284
	cmpq	$0, 96(%r15)
	je	.L1183
	.loc 1 1849 0
	movl	$.LC134, %esi
	movl	$3, %edi
	xorl	%eax, %eax
	call	syslog
.LVL519:
.L1183:
	.loc 1 1850 0
	testl	%ebx, %ebx
	movl	$500, %ecx
	jle	.L1184
	.loc 1 1852 0
	movslq	%ebx, %rbx
	.loc 1 1850 0
	imulq	$1000, %rbx, %rcx
.LVL520:
.L1184:
	movq	(%rsp), %rdi
	xorl	%r8d, %r8d
	movq	%r15, %rdx
	movl	$wakeup_connection, %esi
	call	tmr_create
.LVL521:
	movq	%rbp, %rdx
	shrq	$3, %rdx
	cmpb	$0, 2147450880(%rdx)
	jne	.L2285
.L1142:
	.loc 1 1767 0
	testq	%rax, %rax
	.loc 1 1765 0
	movq	%rax, 96(%r15)
	.loc 1 1767 0
	jne	.L1012
	.loc 1 1769 0
	movl	$2, %edi
	movl	$.LC135, %esi
	xorl	%eax, %eax
	call	syslog
.LVL522:
	.loc 1 1770 0
	call	__asan_handle_no_return
.LVL523:
	movl	$1, %edi
	call	exit
.LVL524:
.L2276:
	.loc 1 1830 0
	call	__asan_report_load8
.LVL525:
.L2284:
	.loc 1 1848 0
	movq	%rbp, %rdi
	call	__asan_report_load8
.LVL526:
.L2283:
	.loc 1 1846 0
	movq	16(%rsp), %rdi
	call	__asan_report_load8
.LVL527:
.L2285:
	.loc 1 1850 0
	movq	%rbp, %rdi
	call	__asan_report_store8
.LVL528:
.L2282:
	.loc 1 1846 0
	call	__asan_report_load8
.LVL529:
.L2281:
	movq	%r14, %rdi
	call	__asan_report_load8
.LVL530:
.L2279:
	.loc 1 1841 0
	movq	%r15, %rdi
	call	__asan_report_store4
.LVL531:
.L2280:
	.loc 1 1842 0
	movq	%r12, %rdi
	call	__asan_report_load4
.LVL532:
.L2278:
	.loc 1 1836 0
	call	__asan_report_load8
.LVL533:
.L2277:
	.loc 1 1834 0
	movq	16(%rsp), %rdi
	call	__asan_report_load8
.LVL534:
.L2275:
.LBB687:
.LBB688:
	.loc 1 1987 0
	movq	%rdx, %rdi
	call	httpd_write_response
.LVL535:
	.loc 1 1990 0
	movq	(%rsp), %rsi
	movq	%r15, %rdi
	call	clear_connection
.LVL536:
	jmp	.L1012
.LVL537:
.L2274:
.LBE688:
.LBE687:
	.loc 1 1822 0
	movq	%rbp, %rdi
	call	__asan_report_load8
.LVL538:
.L2270:
	.loc 1 1817 0
	call	__asan_report_load8
.LVL539:
.L2269:
	movq	%r14, %rdi
	call	__asan_report_load8
.LVL540:
.L2272:
	.loc 1 1819 0
	movq	%r13, %rdi
	call	__asan_report_load4
.LVL541:
.L2273:
	call	__asan_report_load8
.LVL542:
.L2268:
	.loc 1 1816 0
	movq	%r11, %rdi
	call	__asan_report_load8
.LVL543:
.L2271:
	.loc 1 1818 0
	call	__asan_report_load4
.LVL544:
.L2266:
	.loc 1 1797 0
	movq	24(%rsp), %rdi
	call	__asan_report_load8
.LVL545:
.L2265:
	.loc 1 1795 0
	call	__asan_report_store8
.LVL546:
.L1133:
	.loc 1 1759 0
	leaq	112(%r15), %rbp
	movq	%rbp, %rax
	shrq	$3, %rax
	cmpb	$0, 2147450880(%rax)
	jne	.L2286
	.loc 1 1760 0
	movq	%r15, %rax
	.loc 1 1759 0
	addq	$100, 112(%r15)
	.loc 1 1760 0
	shrq	$3, %rax
	movzbl	2147450880(%rax), %edx
	testb	%dl, %dl
	je	.L1137
	movq	%r15, %rax
	andl	$7, %eax
	addl	$3, %eax
	cmpb	%dl, %al
	jge	.L2287
.L1137:
	.loc 1 1761 0
	movq	%r12, %rax
	.loc 1 1760 0
	movl	$3, (%r15)
	.loc 1 1761 0
	shrq	$3, %rax
	movzbl	2147450880(%rax), %edx
	testb	%dl, %dl
	je	.L1138
	movq	%r12, %rax
	andl	$7, %eax
	addl	$3, %eax
	cmpb	%dl, %al
	jge	.L2288
.L1138:
	movl	704(%rbx), %edi
	.loc 1 1763 0
	leaq	96(%r15), %rbx
.LVL547:
	.loc 1 1761 0
	call	fdwatch_del_fd
.LVL548:
	.loc 1 1763 0
	movq	%rbx, %rax
	shrq	$3, %rax
	cmpb	$0, 2147450880(%rax)
	jne	.L2289
	cmpq	$0, 96(%r15)
	je	.L1140
	.loc 1 1764 0
	movl	$.LC134, %esi
	movl	$3, %edi
	xorl	%eax, %eax
	call	syslog
.LVL549:
.L1140:
	.loc 1 1765 0
	movq	%rbp, %rax
	shrq	$3, %rax
	cmpb	$0, 2147450880(%rax)
	jne	.L2290
	movq	112(%r15), %rcx
	movq	(%rsp), %rdi
	xorl	%r8d, %r8d
	movq	%r15, %rdx
	movl	$wakeup_connection, %esi
	call	tmr_create
.LVL550:
	movq	%rbx, %rdx
	shrq	$3, %rdx
	cmpb	$0, 2147450880(%rdx)
	je	.L1142
	movq	%rbx, %rdi
	call	__asan_report_store8
.LVL551:
.L2289:
	.loc 1 1763 0
	movq	%rbx, %rdi
	call	__asan_report_load8
.LVL552:
.L2290:
	.loc 1 1765 0
	movq	%rbp, %rdi
	call	__asan_report_load8
.LVL553:
.L2286:
	.loc 1 1759 0
	movq	%rbp, %rdi
	call	__asan_report_load8
.LVL554:
.L2288:
	.loc 1 1761 0
	movq	%r12, %rdi
	call	__asan_report_load4
.LVL555:
.L2262:
	.loc 1 1726 0
	call	__asan_report_load8
.LVL556:
.L2267:
.LBB689:
	.loc 1 1804 0
	leaq	368(%rbx), %rdi
	.loc 1 1803 0
	subl	%ecx, %eax
.LVL557:
	.loc 1 1804 0
	movslq	%eax, %r13
	movq	%rdi, %rax
.LVL558:
	shrq	$3, %rax
	cmpb	$0, 2147450880(%rax)
	jne	.L2291
	movq	368(%rbx), %r9
	addq	%r9, %r10
	testq	%r13, %r13
	je	.L1154
	movq	%r10, %rax
	movq	%r10, %rsi
	shrq	$3, %rax
	movzbl	2147450880(%rax), %ecx
.LVL559:
	leaq	-1(%r13), %rax
	leaq	(%r10,%rax), %rdi
	movq	%rdi, %rdx
	shrq	$3, %rdx
	testb	%cl, %cl
	setne	%r8b
	andl	$7, %esi
	movzbl	2147450880(%rdx), %edx
	cmpb	%sil, %cl
	setle	%cl
	testb	%cl, %r8b
	jne	.L1260
	testb	%dl, %dl
	setne	%cl
	andl	$7, %edi
	cmpb	%dil, %dl
	setle	%dl
	testb	%dl, %cl
	jne	.L1260
	testq	%r13, %r13
	je	.L1154
	movq	%r9, %rdx
	addq	%r9, %rax
	movq	%r9, %rsi
	shrq	$3, %rdx
	movzbl	2147450880(%rdx), %ecx
	movq	%rax, %rdx
	shrq	$3, %rdx
	movzbl	2147450880(%rdx), %edx
	testb	%cl, %cl
	setne	%dil
	andl	$7, %esi
	cmpb	%sil, %cl
	setle	%cl
	testb	%cl, %dil
	jne	.L1261
	testb	%dl, %dl
	setne	%cl
	andl	$7, %eax
	cmpb	%al, %dl
	setle	%al
	testb	%al, %cl
	jne	.L1261
.L1154:
	movq	%r13, %rdx
	movq	%r10, %rsi
	movq	%r9, %rdi
	movq	%r11, 32(%rsp)
	call	memmove
.LVL560:
	.loc 1 1805 0
	movq	24(%rsp), %rax
	movq	32(%rsp), %r11
	shrq	$3, %rax
	cmpb	$0, 2147450880(%rax)
	jne	.L2292
	movq	%r13, 472(%rbx)
.LVL561:
	xorl	%ecx, %ecx
	jmp	.L1149
.LVL562:
.L2291:
	.loc 1 1804 0
	call	__asan_report_load8
.LVL563:
.L2292:
	.loc 1 1805 0
	movq	24(%rsp), %rdi
	call	__asan_report_store8
.LVL564:
.L2264:
.LBE689:
	.loc 1 1743 0
	call	__errno_location
.LVL565:
	movq	%rax, %rdx
	shrq	$3, %rdx
	movzbl	2147450880(%rdx), %ecx
	testb	%cl, %cl
	je	.L1130
	movq	%rax, %rdx
	andl	$7, %edx
	addl	$3, %edx
	cmpb	%cl, %dl
	jge	.L2293
.L1130:
	movl	(%rax), %eax
	cmpl	$4, %eax
	je	.L1012
	.loc 1 1747 0
	cmpl	$11, %eax
	je	.L1133
	.loc 1 1788 0
	cmpl	$22, %eax
	setne	%cl
	cmpl	$32, %eax
	setne	%dl
	testb	%dl, %cl
	je	.L2153
	cmpl	$104, %eax
	je	.L2153
	.loc 1 1789 0
	leaq	208(%rbx), %rdi
	movq	%rdi, %rax
	shrq	$3, %rax
	cmpb	$0, 2147450880(%rax)
	jne	.L2294
	movq	208(%rbx), %rdx
	movl	$.LC136, %esi
	movl	$3, %edi
	xorl	%eax, %eax
	call	syslog
.LVL566:
	jmp	.L2153
.LVL567:
.L1261:
.LBB690:
	.loc 1 1804 0
	movq	%r13, %rsi
	movq	%r9, %rdi
	call	__asan_report_store_n
.LVL568:
.L2287:
.LBE690:
	.loc 1 1760 0
	movq	%r15, %rdi
	call	__asan_report_store4
.LVL569:
.L2293:
	.loc 1 1743 0
	movq	%rax, %rdi
	call	__asan_report_load4
.LVL570:
.L1260:
.LBB691:
	.loc 1 1804 0
	movq	%r13, %rsi
	movq	%r10, %rdi
	call	__asan_report_load_n
.LVL571:
.L2294:
.LBE691:
	.loc 1 1789 0
	call	__asan_report_load8
.LVL572:
.L2261:
	.loc 1 1727 0
	movq	%r11, %rdi
	call	__asan_report_load8
.LVL573:
.L2260:
	movq	%rbp, %rdi
	call	__asan_report_load8
.LVL574:
.L1118:
.LBB692:
	.loc 1 1736 0
	leaq	368(%rbx), %rdi
	movq	%rdi, %rcx
	shrq	$3, %rcx
	cmpb	$0, 2147450880(%rcx)
	jne	.L2295
	movq	8(%rsp), %rsi
	.loc 1 1738 0
	leaq	712(%rbx), %rdi
	.loc 1 1736 0
	movq	368(%rbx), %rcx
	.loc 1 1737 0
	movq	%rdx, -28984(%rsi)
	.loc 1 1738 0
	movq	%rdi, %rdx
	.loc 1 1736 0
	movq	%rcx, -28992(%rsi)
	.loc 1 1738 0
	shrq	$3, %rdx
	cmpb	$0, 2147450880(%rdx)
	jne	.L2296
	leaq	136(%r15), %r11
	movq	712(%rbx), %rdx
	movq	%r11, %rcx
	shrq	$3, %rcx
	cmpb	$0, 2147450880(%rcx)
	jne	.L2297
	movq	136(%r15), %rcx
	movq	8(%rsp), %rsi
	.loc 1 1739 0
	leaq	128(%r15), %rbp
	.loc 1 1738 0
	addq	%rcx, %rdx
	movq	%rdx, -28976(%rsi)
	.loc 1 1739 0
	movq	%rbp, %rdx
	shrq	$3, %rdx
	cmpb	$0, 2147450880(%rdx)
	jne	.L2298
	movq	128(%r15), %rdx
	.loc 1 1740 0
	leaq	704(%rbx), %r12
	.loc 1 1739 0
	subq	%rcx, %rdx
	movq	8(%rsp), %rcx
	cmpq	%rdx, %rax
	cmova	%rdx, %rax
.LVL575:
	movq	%rax, -28968(%rcx)
	.loc 1 1740 0
	movq	%r12, %rax
	shrq	$3, %rax
	movzbl	2147450880(%rax), %edx
	testb	%dl, %dl
	je	.L1128
	movq	%r12, %rax
	andl	$7, %eax
	addl	$3, %eax
	cmpb	%dl, %al
	jge	.L2299
.L1128:
	movl	704(%rbx), %edi
	movq	72(%rsp), %rsi
	movl	$2, %edx
	movq	%r11, 32(%rsp)
	call	writev
.LVL576:
	movq	32(%rsp), %r11
.LVL577:
	movslq	%eax, %rcx
	jmp	.L1123
.LVL578:
.L2298:
	.loc 1 1739 0
	movq	%rbp, %rdi
	call	__asan_report_load8
.LVL579:
.L2297:
	.loc 1 1738 0
	movq	%r11, %rdi
	call	__asan_report_load8
.LVL580:
.L2296:
	call	__asan_report_load8
.LVL581:
.L2295:
	.loc 1 1736 0
	call	__asan_report_load8
.LVL582:
.L2259:
.LBE692:
	.loc 1 1722 0
	movq	24(%rsp), %rdi
	call	__asan_report_load8
.LVL583:
.L2299:
.LBB693:
	.loc 1 1740 0
	movq	%r12, %rdi
	call	__asan_report_load4
.LVL584:
.L2257:
.LBE693:
	.loc 1 1713 0
	movq	%r14, %rdi
	call	__asan_report_load8
.LVL585:
.L2254:
.LBE694:
.LBE748:
.LBB749:
.LBB699:
	.loc 1 1873 0
	call	__asan_report_load4
.LVL586:
.L2258:
.LBE699:
.LBE749:
.LBB750:
.LBB695:
	.loc 1 1716 0
	movq	16(%rsp), %rdi
	call	__asan_report_load8
.LVL587:
.L2263:
	.loc 1 1725 0
	movq	%r12, %rdi
	call	__asan_report_load4
.LVL588:
.L2252:
.LBE695:
.LBE750:
.LBB751:
.LBB739:
.LBB705:
.LBB704:
	.loc 1 1987 0
	movq	%r14, %rdi
	call	__asan_report_load8
.LVL589:
.L2251:
.LBE704:
.LBE705:
	.loc 1 1596 0
	movl	$httpd_err400title, %edi
	call	__asan_report_load8
.LVL590:
.L2250:
	movl	$httpd_err400form, %edi
	call	__asan_report_load8
.LVL591:
.L1025:
	.loc 1 1600 0
	leaq	144(%rbx), %r12
	addq	$1000, %rdx
	movq	%r13, %rsi
	movq	%r8, 24(%rsp)
	movq	%rcx, 16(%rsp)
	movq	%r12, %rdi
	call	httpd_realloc_str
.LVL592:
	movq	24(%rsp), %r8
	movq	16(%rsp), %rcx
	cmpb	$0, 2147450880(%r8)
	jne	.L2300
	cmpb	$0, 2147450880(%rcx)
	movq	152(%rbx), %rdx
	jne	.L2301
	movq	160(%rbx), %rax
.L1024:
	.loc 1 1606 0
	movq	%r12, %rcx
	shrq	$3, %rcx
	cmpb	$0, 2147450880(%rcx)
	jne	.L2302
	.loc 1 1605 0
	addq	144(%rbx), %rax
	leaq	704(%rbx), %r13
	movq	%rax, %rsi
	movq	%r13, %rax
	shrq	$3, %rax
	movzbl	2147450880(%rax), %ecx
	testb	%cl, %cl
	je	.L1032
	movq	%r13, %rax
	andl	$7, %eax
	addl	$3, %eax
	cmpb	%cl, %al
	jge	.L2303
.L1032:
	movl	704(%rbx), %edi
	call	read
.LVL593:
	.loc 1 1608 0
	testl	%eax, %eax
	je	.L2304
	.loc 1 1614 0
	js	.L2305
	.loc 1 1628 0
	movq	%rbp, %rdx
	shrq	$3, %rdx
	cmpb	$0, 2147450880(%rdx)
	jne	.L2306
	.loc 1 1629 0
	leaq	88(%r15), %rdi
	.loc 1 1628 0
	cltq
	addq	%rax, 160(%rbx)
	.loc 1 1629 0
	movq	8(%rsp), %rax
.LVL594:
	movq	%rdi, %rdx
	shrq	$3, %rdx
	cmpb	$0, 2147450880(%rdx)
	movq	-29056(%rax), %rax
	jne	.L2307
	movq	%rax, 88(%r15)
	.loc 1 1632 0
	movq	%rbx, %rdi
	call	httpd_got_request
.LVL595:
	testl	%eax, %eax
	je	.L1012
	cmpl	$2, %eax
	jne	.L2133
	.loc 1 1637 0
	movl	$httpd_err400form, %eax
	shrq	$3, %rax
	cmpb	$0, 2147450880(%rax)
	jne	.L2308
	movl	$httpd_err400title, %eax
	movq	httpd_err400form(%rip), %r8
	shrq	$3, %rax
	cmpb	$0, 2147450880(%rax)
	jne	.L2309
	movq	httpd_err400title(%rip), %rdx
	movl	$.LC28, %r9d
	movl	$400, %esi
	movq	%r9, %rcx
	movq	%rbx, %rdi
	call	httpd_send_err
.LVL596:
.LBB706:
.LBB707:
	.loc 1 1987 0
	movq	%r14, %rax
	shrq	$3, %rax
	cmpb	$0, 2147450880(%rax)
	je	.L1028
	movq	%r14, %rdi
	call	__asan_report_load8
.LVL597:
.L2302:
.LBE707:
.LBE706:
	.loc 1 1606 0
	movq	%r12, %rdi
	call	__asan_report_load8
.LVL598:
.L2309:
	.loc 1 1637 0
	movl	$httpd_err400title, %edi
	call	__asan_report_load8
.LVL599:
.L2308:
	movl	$httpd_err400form, %edi
	call	__asan_report_load8
.LVL600:
.L2133:
	.loc 1 1643 0
	movq	%rbx, %rdi
	call	httpd_parse_request
.LVL601:
	testl	%eax, %eax
	js	.L2310
.LVL602:
.LBB708:
.LBB709:
	.loc 1 1887 0
	leaq	56(%r15), %r12
	movq	%r12, %rax
	shrq	$3, %rax
	movzbl	2147450880(%rax), %edx
	testb	%dl, %dl
	je	.L1051
	movq	%r12, %rax
	andl	$7, %eax
	addl	$3, %eax
	cmpb	%dl, %al
	jge	.L2311
.L1051:
	.loc 1 1888 0
	leaq	72(%r15), %rax
	.loc 1 1887 0
	movl	$0, 56(%r15)
	.loc 1 1888 0
	movq	%rax, 24(%rsp)
	shrq	$3, %rax
	cmpb	$0, 2147450880(%rax)
	jne	.L2312
	leaq	64(%r15), %rax
	movq	$-1, 72(%r15)
	movq	%rax, 32(%rsp)
	shrq	$3, %rax
	cmpb	$0, 2147450880(%rax)
	jne	.L2313
	.loc 1 1889 0
	movl	numthrottles(%rip), %edi
	.loc 1 1888 0
	movq	$-1, 64(%r15)
.LVL603:
	.loc 1 1889 0
	testl	%edi, %edi
	jle	.L1054
	.loc 1 1891 0
	movq	%r14, %rax
	.loc 1 1889 0
	xorl	%ecx, %ecx
	.loc 1 1904 0
	movq	%rbx, 40(%rsp)
	.loc 1 1891 0
	shrq	$3, %rax
	.loc 1 1889 0
	movl	$0, 16(%rsp)
	.loc 1 1904 0
	movq	%rcx, %rbx
.LVL604:
	.loc 1 1891 0
	movq	%rax, 64(%rsp)
	.loc 1 1904 0
	movq	%r12, %rax
	shrq	$3, %rax
	movq	%rax, 48(%rsp)
	movq	%r12, %rax
	andl	$7, %eax
	addl	$3, %eax
	movb	%al, 63(%rsp)
.LVL605:
.L1080:
	.loc 1 1891 0
	movq	64(%rsp), %rax
	cmpb	$0, 2147450880(%rax)
	jne	.L2314
	movq	8(%r15), %rax
	leaq	240(%rax), %rdi
	movq	%rdi, %rdx
	shrq	$3, %rdx
	cmpb	$0, 2147450880(%rdx)
	jne	.L2315
	movq	%rbx, %rdi
	addq	throttles(%rip), %rdi
	movq	240(%rax), %rsi
	movq	%rdi, %rax
	shrq	$3, %rax
	cmpb	$0, 2147450880(%rax)
	jne	.L2316
	movq	(%rdi), %rdi
	call	match
.LVL606:
	testl	%eax, %eax
	je	.L1058
	.loc 1 1894 0
	movq	%rbx, %rcx
	addq	throttles(%rip), %rcx
	leaq	24(%rcx), %rdi
	movq	%rdi, %rax
	shrq	$3, %rax
	cmpb	$0, 2147450880(%rax)
	jne	.L2317
	leaq	8(%rcx), %rdi
	movq	24(%rcx), %rdx
	movq	%rdi, %rax
	shrq	$3, %rax
	cmpb	$0, 2147450880(%rax)
	jne	.L2318
	movq	8(%rcx), %rax
	leaq	(%rax,%rax), %rsi
	cmpq	%rsi, %rdx
	jg	.L1061
	.loc 1 1897 0
	leaq	16(%rcx), %rdi
	movq	%rdi, %rsi
	shrq	$3, %rsi
	cmpb	$0, 2147450880(%rsi)
	jne	.L2319
	movq	16(%rcx), %rsi
	cmpq	%rsi, %rdx
	jl	.L1061
	.loc 1 1899 0
	leaq	40(%rcx), %rbp
	movq	%rbp, %rdx
	shrq	$3, %rdx
	movzbl	2147450880(%rdx), %edi
	testb	%dil, %dil
	je	.L1063
	movq	%rbp, %rdx
	andl	$7, %edx
	addl	$3, %edx
	cmpb	%dil, %dl
	jge	.L2320
.L1063:
	movl	40(%rcx), %edx
	testl	%edx, %edx
	js	.L1064
	addl	$1, %edx
	movslq	%edx, %r9
.L1065:
	.loc 1 1904 0
	movq	48(%rsp), %rdi
	movzbl	2147450880(%rdi), %edi
	testb	%dil, %dil
	je	.L1069
	cmpb	%dil, 63(%rsp)
	jge	.L2321
.L1069:
	movslq	56(%r15), %r8
	leal	1(%r8), %edi
	movl	%edi, 56(%r15)
	leaq	16(%r15,%r8,4), %rdi
	movq	%rdi, %r10
	shrq	$3, %r10
	movzbl	2147450880(%r10), %r11d
	testb	%r11b, %r11b
	je	.L1070
	movq	%rdi, %r10
	andl	$7, %r10d
	addl	$3, %r10d
	cmpb	%r11b, %r10b
	jge	.L2322
.L1070:
	movl	16(%rsp), %edi
	movl	%edi, 16(%r15,%r8,4)
	.loc 1 1905 0
	movq	%rbp, %rdi
	shrq	$3, %rdi
	movzbl	2147450880(%rdi), %r8d
	testb	%r8b, %r8b
	je	.L1071
	movq	%rbp, %rdi
	andl	$7, %edi
	addl	$3, %edi
	cmpb	%r8b, %dil
	jge	.L2323
.L1071:
	movl	%edx, 40(%rcx)
	.loc 1 1906 0
	cqto
	idivq	%r9
.LVL607:
	.loc 1 1907 0
	movq	32(%rsp), %rdx
	shrq	$3, %rdx
	cmpb	$0, 2147450880(%rdx)
	jne	.L2324
	movq	64(%r15), %rdx
	cmpq	$-1, %rdx
	je	.L2150
	.loc 1 1910 0
	cmpq	%rdx, %rax
	cmovg	%rdx, %rax
.LVL608:
.L2150:
	movq	%rax, 64(%r15)
.LVL609:
	.loc 1 1912 0
	movq	24(%rsp), %rax
	shrq	$3, %rax
	cmpb	$0, 2147450880(%rax)
	jne	.L2325
	movq	72(%r15), %rax
	cmpq	$-1, %rax
	je	.L2151
	.loc 1 1915 0
	cmpq	%rax, %rsi
	cmovl	%rax, %rsi
.LVL610:
.L2151:
	movq	%rsi, 72(%r15)
.L1058:
	.loc 1 1890 0
	addl	$1, 16(%rsp)
.LVL611:
	movl	16(%rsp), %eax
.LVL612:
	.loc 1 1889 0
	cmpl	numthrottles(%rip), %eax
	jge	.L2148
	movq	48(%rsp), %rax
.LVL613:
	movzbl	2147450880(%rax), %eax
	testb	%al, %al
	je	.L1079
	cmpb	%al, 63(%rsp)
	jge	.L2326
.L1079:
	addq	$48, %rbx
	cmpl	$9, 56(%r15)
	jle	.L1080
.L2148:
	movq	40(%rsp), %rbx
.LVL614:
.L1054:
.LBE709:
.LBE708:
	.loc 1 1659 0
	movq	(%rsp), %rsi
	movq	%rbx, %rdi
	call	httpd_start_request
.LVL615:
	testl	%eax, %eax
	js	.L2327
	.loc 1 1667 0
	leaq	528(%rbx), %rdi
	movq	%rdi, %rax
	shrq	$3, %rax
	movzbl	2147450880(%rax), %edx
	testb	%dl, %dl
	je	.L1082
	movq	%rdi, %rax
	andl	$7, %eax
	addl	$3, %eax
	cmpb	%dl, %al
	jge	.L2328
.L1082:
	movl	528(%rbx), %esi
	testl	%esi, %esi
	je	.L1083
	.loc 1 1669 0
	leaq	536(%rbx), %rdi
	movq	%rdi, %rax
	shrq	$3, %rax
	cmpb	$0, 2147450880(%rax)
	jne	.L2329
	leaq	136(%r15), %rdi
	movq	536(%rbx), %rax
	movq	%rdi, %rdx
	shrq	$3, %rdx
	cmpb	$0, 2147450880(%rdx)
	jne	.L2330
	.loc 1 1670 0
	leaq	544(%rbx), %rdi
	.loc 1 1669 0
	movq	%rax, 136(%r15)
	.loc 1 1670 0
	movq	%rdi, %rax
	shrq	$3, %rax
	cmpb	$0, 2147450880(%rax)
	jne	.L2331
	leaq	128(%r15), %rbp
	movq	544(%rbx), %rax
	movq	%rbp, %rdx
	shrq	$3, %rdx
	addq	$1, %rax
	cmpb	$0, 2147450880(%rdx)
	jne	.L2332
.L1092:
	.loc 1 1675 0
	movq	%rax, 128(%r15)
.L1088:
	.loc 1 1678 0
	leaq	712(%rbx), %rdi
	movq	%rdi, %rax
	shrq	$3, %rax
	cmpb	$0, 2147450880(%rax)
	jne	.L2333
	cmpq	$0, 712(%rbx)
	je	.L2334
	.loc 1 1688 0
	leaq	136(%r15), %rdi
	movq	%rdi, %rax
	shrq	$3, %rax
	cmpb	$0, 2147450880(%rax)
	jne	.L2335
	movq	%rbp, %rdx
	movq	136(%r15), %rax
	shrq	$3, %rdx
	cmpb	$0, 2147450880(%rdx)
	jne	.L2336
	cmpq	128(%r15), %rax
	jl	.L1107
.LVL616:
.LBB716:
.LBB717:
	.loc 1 1987 0
	movq	%r14, %rax
	shrq	$3, %rax
	cmpb	$0, 2147450880(%rax)
	je	.L1028
	movq	%r14, %rdi
	call	__asan_report_load8
.LVL617:
.L2327:
.LBE717:
.LBE716:
.LBB718:
.LBB719:
	movq	%r14, %rax
	shrq	$3, %rax
	cmpb	$0, 2147450880(%rax)
	je	.L1028
	movq	%r14, %rdi
	call	__asan_report_load8
.LVL618:
.L1107:
.LBE719:
.LBE718:
	.loc 1 1696 0
	movq	%r15, %rax
	shrq	$3, %rax
	movzbl	2147450880(%rax), %edx
	testb	%dl, %dl
	je	.L1109
	movq	%r15, %rax
	andl	$7, %eax
	addl	$3, %eax
	cmpb	%dl, %al
	jge	.L2337
.L1109:
	.loc 1 1697 0
	leaq	80(%r15), %rdi
	movq	8(%rsp), %rax
	.loc 1 1696 0
	movl	$2, (%r15)
	.loc 1 1697 0
	movq	%rdi, %rdx
	shrq	$3, %rdx
	movq	-29056(%rax), %rax
	cmpb	$0, 2147450880(%rdx)
	jne	.L2338
	.loc 1 1698 0
	leaq	112(%r15), %rdi
	.loc 1 1697 0
	movq	%rax, 80(%r15)
	.loc 1 1698 0
	movq	%rdi, %rax
	shrq	$3, %rax
	cmpb	$0, 2147450880(%rax)
	jne	.L2339
	.loc 1 1701 0
	movq	%r13, %rax
	.loc 1 1698 0
	movq	$0, 112(%r15)
.LVL619:
	.loc 1 1701 0
	shrq	$3, %rax
	movzbl	2147450880(%rax), %edx
	testb	%dl, %dl
	je	.L1112
	movq	%r13, %rax
	andl	$7, %eax
	addl	$3, %eax
	cmpb	%dl, %al
	jge	.L2340
.L1112:
	movl	704(%rbx), %edi
	call	fdwatch_del_fd
.LVL620:
	.loc 1 1702 0
	movq	%r13, %rax
	shrq	$3, %rax
	movzbl	2147450880(%rax), %edx
	testb	%dl, %dl
	je	.L1113
	movq	%r13, %rax
	andl	$7, %eax
	addl	$3, %eax
	cmpb	%dl, %al
	jge	.L2341
.L1113:
	movl	704(%rbx), %edi
	movl	$1, %edx
	movq	%r15, %rsi
	call	fdwatch_add_fd
.LVL621:
	jmp	.L1012
.LVL622:
.L2224:
.LBE739:
.LBE751:
	.loc 1 657 0
	movl	$2, %edi
	movl	$.LC121, %esi
	call	syslog
.LVL623:
	.loc 1 658 0
	call	__asan_handle_no_return
.LVL624:
	movl	$1, %edi
	call	exit
.LVL625:
.L2223:
	.loc 1 651 0
	movl	$2, %edi
	movl	$.LC120, %esi
	call	syslog
.LVL626:
	.loc 1 652 0
	call	__asan_handle_no_return
.LVL627:
	movl	$1, %edi
	call	exit
.LVL628:
.L2222:
	.loc 1 646 0
	call	__asan_handle_no_return
.LVL629:
	movl	$1, %edi
	call	exit
.LVL630:
.L2225:
	.loc 1 665 0
	movl	$2, %edi
	movl	$.LC122, %esi
	call	syslog
.LVL631:
	.loc 1 666 0
	call	__asan_handle_no_return
.LVL632:
	movl	$1, %edi
	call	exit
.LVL633:
.L2220:
	.loc 1 560 0
	movq	%rbx, %rdi
	call	chroot
.LVL634:
	testl	%eax, %eax
	js	.L2342
	.loc 1 571 0
	movq	logfile(%rip), %r14
	testq	%r14, %r14
	je	.L944
.LVL635:
.LBB752:
.LBB753:
	.loc 1 571 0 is_stmt 0 discriminator 1
	movq	%r14, %rax
	shrq	$3, %rax
	movzbl	2147450880(%rax), %eax
	testb	%al, %al
	je	.L945
	movq	%r14, %rdx
	andl	$7, %edx
	cmpb	%dl, %al
	jle	.L2343
.L945:
.LVL636:
	cmpb	$45, (%r14)
	jne	.L946
	.loc 1 571 0 discriminator 4
	leaq	1(%r14), %rdi
	movq	%rdi, %rdx
	shrq	$3, %rdx
	movzbl	2147450880(%rdx), %edx
	testb	%dl, %dl
	je	.L947
	movq	%rdi, %rcx
	andl	$7, %ecx
	cmpb	%cl, %dl
	jle	.L2344
.L947:
.LVL637:
.LBE753:
.LBE752:
	cmpb	$0, 1(%r14)
	je	.L944
.LVL638:
.L946:
	.loc 1 573 0 is_stmt 1
	movq	%rbx, %r8
.L948:
	movl	(%r8), %edx
	addq	$4, %r8
	leal	-16843009(%rdx), %eax
	notl	%edx
	andl	%edx, %eax
	andl	$-2139062144, %eax
	je	.L948
	movl	%eax, %edx
	shrl	$16, %edx
	testl	$32896, %eax
	cmove	%edx, %eax
	leaq	2(%r8), %rdx
	cmove	%rdx, %r8
	addb	%al, %al
	movq	%rbx, %rax
	sbbq	$3, %r8
	shrq	$3, %rax
	movzbl	2147450880(%rax), %eax
	subq	%rbx, %r8
	testb	%al, %al
	je	.L950
	movq	%rbx, %rdx
	andl	$7, %edx
	cmpb	%dl, %al
	jle	.L2345
.L950:
	leaq	(%rbx,%r8), %rdi
	movq	%rdi, %rdx
	shrq	$3, %rdx
	movzbl	2147450880(%rdx), %edx
	testb	%dl, %dl
	je	.L951
	movq	%rdi, %rcx
	andl	$7, %ecx
	cmpb	%cl, %dl
	jle	.L2346
.L951:
	movq	%r8, %rdx
	movq	%rbx, %rsi
	movq	%r14, %rdi
	movq	%r8, 16(%rsp)
	call	strncmp
.LVL639:
	testl	%eax, %eax
	movq	16(%rsp), %r8
	jne	.L952
	.loc 1 575 0
	leaq	-1(%r14,%r8), %rsi
	movq	%r14, %rdi
	call	strcpy
.LVL640:
.L944:
	.loc 1 587 0
	movl	$.LC108, %edx
	movq	%rdx, %rax
	shrq	$3, %rax
	movzbl	2147450880(%rax), %esi
	movl	$.LC108+1, %eax
	movq	%rax, %rcx
	shrq	$3, %rcx
	movzbl	2147450880(%rcx), %ecx
	testb	%sil, %sil
	setne	%dil
	andl	$7, %edx
	cmpb	%dl, %sil
	setle	%dl
	testb	%dl, %dil
	jne	.L1257
	testb	%cl, %cl
	setne	%dl
	andl	$7, %eax
	cmpb	%al, %cl
	setle	%al
	testb	%al, %dl
	jne	.L1257
	movq	%rbx, %rax
	movq	%rbx, %rdi
	shrq	$3, %rax
	movzbl	2147450880(%rax), %ecx
	leaq	1(%rbx), %rax
	movq	%rax, %rdx
	shrq	$3, %rdx
	testb	%cl, %cl
	movzbl	2147450880(%rdx), %edx
	setne	%sil
	andl	$7, %edi
	cmpb	%dil, %cl
	setle	%cl
	testb	%cl, %sil
	jne	.L1258
	testb	%dl, %dl
	setne	%cl
	andl	$7, %eax
	cmpb	%al, %dl
	setle	%al
	testb	%al, %cl
	jne	.L1258
	movl	$47, %eax
	.loc 1 589 0
	movq	%rbx, %rdi
	.loc 1 587 0
	movw	%ax, -24320(%r15)
	.loc 1 589 0
	call	chdir
.LVL641:
	testl	%eax, %eax
	jns	.L942
	.loc 1 591 0
	movl	$.LC116, %esi
	xorl	%eax, %eax
	movl	$2, %edi
	call	syslog
.LVL642:
	.loc 1 592 0
	movl	$.LC117, %edi
	call	perror
.LVL643:
	.loc 1 593 0
	call	__asan_handle_no_return
.LVL644:
	movl	$1, %edi
	call	exit
.LVL645:
.L952:
	.loc 1 583 0
	xorl	%eax, %eax
	movl	$.LC114, %esi
	movl	$4, %edi
	call	syslog
.LVL646:
	.loc 1 584 0
	movl	$stderr, %eax
	movq	argv0(%rip), %rdx
	shrq	$3, %rax
	cmpb	$0, 2147450880(%rax)
	jne	.L2347
	movq	stderr(%rip), %rdi
	movl	$.LC115, %esi
	xorl	%eax, %eax
	call	fprintf
.LVL647:
	jmp	.L944
.L2347:
	movl	$stderr, %edi
	call	__asan_report_load8
.LVL648:
.L1258:
	.loc 1 587 0
	movl	$2, %esi
	movq	%rbx, %rdi
	call	__asan_report_store_n
.LVL649:
.L1257:
	movl	$2, %esi
	movl	$.LC108, %edi
	call	__asan_report_load_n
.LVL650:
.L2346:
	.loc 1 573 0
	call	__asan_report_load1
.LVL651:
.L2342:
	.loc 1 562 0
	movl	$.LC113, %esi
	xorl	%eax, %eax
	movl	$2, %edi
	call	syslog
.LVL652:
	.loc 1 563 0
	movl	$.LC55, %edi
	call	perror
.LVL653:
	.loc 1 564 0
	call	__asan_handle_no_return
.LVL654:
	movl	$1, %edi
	call	exit
.LVL655:
.L2344:
.LBB756:
.LBB754:
	.loc 1 571 0
	call	__asan_report_load1
.LVL656:
.L2345:
.LBE754:
.LBE756:
	.loc 1 573 0
	movq	%rbx, %rdi
	call	__asan_report_load1
.LVL657:
.L2305:
.LBB757:
.LBB740:
	.loc 1 1621 0
	call	__errno_location
.LVL658:
	movq	%rax, %rdx
	shrq	$3, %rdx
	movzbl	2147450880(%rdx), %ecx
	testb	%cl, %cl
	je	.L1038
	movq	%rax, %rdx
	andl	$7, %edx
	addl	$3, %edx
	cmpb	%cl, %dl
	jge	.L2348
.L1038:
	movl	(%rax), %eax
	cmpl	$11, %eax
	je	.L1012
	cmpl	$4, %eax
	je	.L1012
	.loc 1 1623 0
	movl	$httpd_err400form, %eax
	shrq	$3, %rax
	cmpb	$0, 2147450880(%rax)
	jne	.L2349
	movl	$httpd_err400title, %eax
	movq	httpd_err400form(%rip), %r8
	shrq	$3, %rax
	cmpb	$0, 2147450880(%rax)
	jne	.L2350
	movq	httpd_err400title(%rip), %rdx
	movl	$.LC28, %r9d
	movl	$400, %esi
	movq	%r9, %rcx
	movq	%rbx, %rdi
	call	httpd_send_err
.LVL659:
.LBB720:
.LBB721:
	.loc 1 1987 0
	movq	%r14, %rax
	shrq	$3, %rax
	cmpb	$0, 2147450880(%rax)
	je	.L1028
	movq	%r14, %rdi
	call	__asan_report_load8
.LVL660:
.L1252:
.LBE721:
.LBE720:
.LBE740:
.LBE757:
.LBB758:
.LBB661:
	.loc 1 1310 0
	movl	$128, %esi
	movq	%r8, %rdi
	call	__asan_report_store_n
.LVL661:
.L855:
	.loc 1 1315 0
	movq	%rbp, %rdi
	call	freeaddrinfo
.LVL662:
	.loc 1 1295 0
	movl	$1, (%rsp)
	.loc 1 1299 0
	movl	$0, 8(%rsp)
	jmp	.L865
.LVL663:
.L2191:
	.loc 1 1311 0
	movq	%rdx, %rdi
	call	__asan_report_load4
.LVL664:
.L2319:
.LBE661:
.LBE758:
.LBB759:
.LBB741:
.LBB722:
.LBB710:
	.loc 1 1897 0
	call	__asan_report_load8
.LVL665:
.L1061:
	movq	40(%rsp), %rbx
.LBE710:
.LBE722:
	.loc 1 1652 0
	leaq	208(%rbx), %rdi
	movq	%rdi, %rax
	shrq	$3, %rax
	cmpb	$0, 2147450880(%rax)
	jne	.L2351
	movq	88(%rsp), %rax
	movq	208(%rbx), %r9
	cmpb	$0, 2147450880(%rax)
	jne	.L2352
	movl	$httpd_err503title, %eax
	movq	httpd_err503form(%rip), %r8
	shrq	$3, %rax
	cmpb	$0, 2147450880(%rax)
	jne	.L2353
	movq	httpd_err503title(%rip), %rdx
	movl	$.LC28, %ecx
	movl	$503, %esi
	movq	%rbx, %rdi
	call	httpd_send_err
.LVL666:
.LBB723:
.LBB724:
	.loc 1 1987 0
	movq	%r14, %rax
	shrq	$3, %rax
	cmpb	$0, 2147450880(%rax)
	je	.L1028
	movq	%r14, %rdi
	call	__asan_report_load8
.LVL667:
.L2318:
.LBE724:
.LBE723:
.LBB725:
.LBB711:
	.loc 1 1894 0
	call	__asan_report_load8
.LVL668:
.L2317:
	call	__asan_report_load8
.LVL669:
.L2353:
.LBE711:
.LBE725:
	.loc 1 1652 0
	movl	$httpd_err503title, %edi
	call	__asan_report_load8
.LVL670:
.L2352:
	movl	$httpd_err503form, %edi
	call	__asan_report_load8
.LVL671:
.L2351:
	call	__asan_report_load8
.LVL672:
.L2200:
	movq	%rcx, %rdi
.LBE741:
.LBE759:
.LBB760:
.LBB676:
	.loc 1 1401 0
	call	__asan_report_store1
.LVL673:
.L2201:
	movq	%rcx, %rdi
	.loc 1 1399 0
	call	__asan_report_load1
.LVL674:
.L2198:
	.loc 1 1397 0
	call	__asan_report_load1
.LVL675:
.L2199:
	.loc 1 1399 0
	call	__asan_report_load1
.LVL676:
.L886:
	.loc 1 1414 0
	xorl	%eax, %eax
	movq	%r12, %rdx
	movq	%rbx, %rcx
	movl	$.LC93, %esi
	movl	$2, %edi
	call	syslog
.LVL677:
	.loc 1 1416 0
	movl	$stderr, %eax
	movq	argv0(%rip), %rdx
	shrq	$3, %rax
	cmpb	$0, 2147450880(%rax)
	jne	.L2354
	movq	stderr(%rip), %rdi
	movq	%rbx, %r8
	movq	%r12, %rcx
	movl	$.LC94, %esi
	xorl	%eax, %eax
	call	fprintf
.LVL678:
	jmp	.L869
.LVL679:
.L2207:
	.loc 1 1457 0
	call	__asan_report_store4
.LVL680:
.L2354:
	.loc 1 1416 0
	movl	$stderr, %edi
	call	__asan_report_load8
.LVL681:
.L892:
	movq	throttles(%rip), %rax
	jmp	.L896
.L2208:
	.loc 1 1444 0
	movl	$stderr, %edi
	call	__asan_report_load8
.LVL682:
.L2209:
.LBE676:
.LBE760:
	.loc 1 406 0
	movq	user(%rip), %rdi
	call	getpwnam
.LVL683:
	.loc 1 407 0
	testq	%rax, %rax
	je	.L2355
	.loc 1 413 0
	leaq	16(%rax), %rdi
	movq	%rdi, %rdx
	shrq	$3, %rdx
	movzbl	2147450880(%rdx), %ecx
	testb	%cl, %cl
	je	.L909
	movq	%rdi, %rdx
	andl	$7, %edx
	addl	$3, %edx
	cmpb	%cl, %dl
	jge	.L2356
.L909:
	.loc 1 414 0
	leaq	20(%rax), %rdi
	.loc 1 413 0
	movl	16(%rax), %r13d
.LVL684:
	.loc 1 414 0
	movq	%rdi, %rdx
	shrq	$3, %rdx
	movzbl	2147450880(%rdx), %ecx
	testb	%cl, %cl
	je	.L910
	movq	%rdi, %rdx
	andl	$7, %edx
	addl	$3, %edx
	cmpb	%cl, %dl
	jge	.L2357
.L910:
	movl	20(%rax), %r12d
.LVL685:
	jmp	.L906
.LVL686:
.L2355:
	.loc 1 409 0
	movq	user(%rip), %rdx
	movl	$.LC98, %esi
	movl	$2, %edi
	call	syslog
.LVL687:
	.loc 1 410 0
	movl	$stderr, %eax
	movq	user(%rip), %rcx
	movq	argv0(%rip), %rdx
	shrq	$3, %rax
	cmpb	$0, 2147450880(%rax)
	jne	.L2358
	movq	stderr(%rip), %rdi
	movl	$.LC99, %esi
	xorl	%eax, %eax
	call	fprintf
.LVL688:
	.loc 1 411 0
	call	__asan_handle_no_return
.LVL689:
	movl	$1, %edi
	call	exit
.LVL690:
.L2357:
	.loc 1 414 0
	call	__asan_report_load4
.LVL691:
.L2358:
	.loc 1 410 0
	movl	$stderr, %edi
	call	__asan_report_load8
.LVL692:
.L912:
.LBB761:
.LBB762:
	.loc 1 425 0
	movq	%rax, %rdx
	shrq	$3, %rdx
	movzbl	2147450880(%rdx), %edx
	testb	%dl, %dl
	je	.L913
	movq	%rax, %rcx
	andl	$7, %ecx
	cmpb	%cl, %dl
	jle	.L2359
.L913:
.LVL693:
	cmpb	$45, (%rax)
	jne	.L914
	.loc 1 425 0 is_stmt 0 discriminator 3
	leaq	1(%rax), %rdi
	movq	%rdi, %rdx
	shrq	$3, %rdx
	movzbl	2147450880(%rdx), %edx
	testb	%dl, %dl
	je	.L915
	movq	%rdi, %rcx
	andl	$7, %ecx
	cmpb	%cl, %dl
	jle	.L2360
.L915:
.LVL694:
.LBE762:
.LBE761:
	cmpb	$0, 1(%rax)
	jne	.L914
	.loc 1 426 0 is_stmt 1
	movl	$stdout, %eax
.LVL695:
	shrq	$3, %rax
	cmpb	$0, 2147450880(%rax)
	jne	.L2361
	movq	stdout(%rip), %rbp
.LVL696:
	jmp	.L911
.LVL697:
.L914:
	.loc 1 429 0
	movl	$.LC101, %esi
	movq	%rax, %rdi
	call	fopen
.LVL698:
	.loc 1 430 0
	movq	logfile(%rip), %rdi
	movl	$384, %esi
	.loc 1 429 0
	movq	%rax, %rbp
.LVL699:
	.loc 1 430 0
	call	chmod
.LVL700:
	.loc 1 431 0
	testl	%eax, %eax
	jne	.L1254
	testq	%rbp, %rbp
	je	.L1254
	.loc 1 437 0
	movq	logfile(%rip), %rdi
	movq	%rdi, %rax
.LVL701:
	shrq	$3, %rax
	movzbl	2147450880(%rax), %eax
	testb	%al, %al
	je	.L919
	movq	%rdi, %rdx
	andl	$7, %edx
	cmpb	%dl, %al
	jle	.L2362
.L919:
	cmpb	$47, (%rdi)
	je	.L920
	.loc 1 439 0
	xorl	%eax, %eax
	movl	$.LC102, %esi
	movl	$4, %edi
	call	syslog
.LVL702:
	.loc 1 440 0
	movl	$stderr, %eax
	movq	argv0(%rip), %rdx
	shrq	$3, %rax
	cmpb	$0, 2147450880(%rax)
	jne	.L2363
	movq	stderr(%rip), %rdi
	movl	$.LC103, %esi
	xorl	%eax, %eax
	call	fprintf
.LVL703:
.L920:
	.loc 1 442 0
	movq	%rbp, %rdi
	call	fileno
.LVL704:
	movl	$1, %edx
	movl	%eax, %edi
	movl	$2, %esi
	xorl	%eax, %eax
	call	fcntl
.LVL705:
	.loc 1 443 0
	call	getuid
.LVL706:
	testl	%eax, %eax
	jne	.L911
	.loc 1 448 0
	movq	%rbp, %rdi
	call	fileno
.LVL707:
	movl	%r12d, %edx
	movl	%r13d, %esi
	movl	%eax, %edi
	call	fchown
.LVL708:
	testl	%eax, %eax
	jns	.L911
	.loc 1 450 0
	movl	$.LC104, %esi
	movl	$4, %edi
	xorl	%eax, %eax
	call	syslog
.LVL709:
	.loc 1 451 0
	movl	$.LC105, %edi
	call	perror
.LVL710:
	jmp	.L911
.L2363:
	.loc 1 440 0
	movl	$stderr, %edi
	call	__asan_report_load8
.LVL711:
.L1254:
	.loc 1 433 0
	movq	logfile(%rip), %rdx
	movl	$.LC90, %esi
	xorl	%eax, %eax
.LVL712:
	movl	$2, %edi
	call	syslog
.LVL713:
	.loc 1 434 0
	movq	logfile(%rip), %rdi
	call	perror
.LVL714:
	.loc 1 435 0
	call	__asan_handle_no_return
.LVL715:
	movl	$1, %edi
	call	exit
.LVL716:
.L2360:
.LBB765:
.LBB763:
	.loc 1 425 0
	call	__asan_report_load1
.LVL717:
.L2361:
.LBE763:
.LBE765:
	.loc 1 426 0
	movl	$stdout, %edi
	call	__asan_report_load8
.LVL718:
.L2362:
	.loc 1 437 0
	call	__asan_report_load1
.LVL719:
.L2197:
.LBB766:
.LBB677:
	.loc 1 1397 0
	movq	%rbx, %rdi
	call	__asan_report_load1
.LVL720:
.L2210:
.LBE677:
.LBE766:
	.loc 1 464 0
	movl	$.LC106, %esi
	xorl	%eax, %eax
	movl	$2, %edi
	call	syslog
.LVL721:
	.loc 1 465 0
	movl	$.LC107, %edi
	call	perror
.LVL722:
	.loc 1 466 0
	call	__asan_handle_no_return
.LVL723:
	movl	$1, %edi
	call	exit
.LVL724:
.L2356:
	.loc 1 413 0
	call	__asan_report_load4
.LVL725:
.L2211:
	.loc 1 487 0
	movq	%rbx, %rdi
	call	__asan_report_load1
.LVL726:
.L2212:
	call	__asan_report_load1
.LVL727:
.L1242:
	.loc 1 457 0
	xorl	%ebp, %ebp
	jmp	.L911
.LVL728:
.L2359:
.LBB767:
.LBB764:
	.loc 1 425 0
	movq	%rax, %rdi
	call	__asan_report_load1
.LVL729:
.L2216:
.LBE764:
.LBE767:
	.loc 1 498 0
	movl	$stderr, %edi
	call	__asan_report_load8
.LVL730:
.L2218:
.LBB768:
	.loc 1 539 0
	movq	pidfile(%rip), %rdx
	movl	$2, %edi
	movl	$.LC90, %esi
	xorl	%eax, %eax
.LVL731:
	call	syslog
.LVL732:
	.loc 1 540 0
	call	__asan_handle_no_return
.LVL733:
	movl	$1, %edi
	call	exit
.LVL734:
.L2215:
.LBE768:
	.loc 1 496 0
	movl	$stdout, %edi
	call	__asan_report_load8
.LVL735:
.L2214:
	.loc 1 495 0
	movl	$stdin, %edi
	call	__asan_report_load8
.LVL736:
.L2217:
	.loc 1 504 0
	movl	$2, %edi
	movl	$.LC109, %esi
	xorl	%eax, %eax
	call	syslog
.LVL737:
	.loc 1 505 0
	call	__asan_handle_no_return
.LVL738:
	movl	$1, %edi
	call	exit
.LVL739:
.L2221:
	.loc 1 602 0
	movl	$.LC118, %esi
	xorl	%eax, %eax
	movl	$2, %edi
	call	syslog
.LVL740:
	.loc 1 603 0
	movl	$.LC119, %edi
	call	perror
.LVL741:
	.loc 1 604 0
	call	__asan_handle_no_return
.LVL742:
	movl	$1, %edi
	call	exit
.LVL743:
.L2219:
	.loc 1 552 0
	movl	$2, %edi
	movl	$.LC112, %esi
	xorl	%eax, %eax
	call	syslog
.LVL744:
	.loc 1 553 0
	call	__asan_handle_no_return
.LVL745:
	movl	$1, %edi
	call	exit
.LVL746:
.L2343:
.LBB769:
.LBB755:
	.loc 1 571 0
	movq	%r14, %rdi
	call	__asan_report_load1
.LVL747:
.L933:
.LBE755:
.LBE769:
	.loc 1 529 0
	call	setsid
.LVL748:
	jmp	.L938
.L2213:
	.loc 1 487 0
	call	__asan_report_load1
.LVL749:
.L1256:
	.loc 1 488 0
	movl	$2, %esi
	call	__asan_report_store_n
.LVL750:
.L1255:
	movl	$2, %esi
	movl	$.LC108, %edi
	call	__asan_report_load_n
.LVL751:
.L1249:
.LBB770:
.LBB662:
	.loc 1 1247 0
	movl	$48, %esi
	movq	%rbx, %rdi
	call	__asan_report_store_n
.LVL752:
.L2162:
.LBE662:
.LBE770:
	.loc 1 370 0
	movq	%r12, %rdi
	call	__asan_report_load8
.LVL753:
.L2164:
.LBB771:
.LBB650:
	.loc 1 883 0
	movq	%rax, %rdi
	call	__asan_report_load1
.LVL754:
.L2416:
	movq	%rdx, %rax
.LVL755:
	shrq	$3, %rax
	movzbl	2147450880(%rax), %eax
	testb	%al, %al
	je	.L1210
	movq	%rdx, %rcx
	andl	$7, %ecx
	cmpb	%cl, %al
	jle	.L2364
.LVL756:
.L1210:
	.loc 1 980 0
	call	__asan_handle_no_return
.LVL757:
	call	usage
.LVL758:
.L2169:
.LBB571:
.LBB401:
	.loc 1 885 0
	movq	%rax, %rdi
	call	__asan_report_load1
.LVL759:
.L2170:
	movq	%rdx, %rdi
	call	__asan_report_load1
.LVL760:
.L2166:
.LBE401:
.LBE571:
	.loc 1 887 0
	movl	$.LC49, %edi
	call	puts
.LVL761:
	.loc 1 888 0
	call	__asan_handle_no_return
.LVL762:
	xorl	%edi, %edi
	call	exit
.LVL763:
.L2167:
	.loc 1 883 0
	call	__asan_report_load8
.LVL764:
.L763:
.LBB572:
.LBB573:
	.loc 1 915 0
	testl	%r9d, %r9d
	jne	.L764
	leaq	1(%rax), %rdx
	movq	%rdx, %rcx
	shrq	$3, %rcx
	movzbl	2147450880(%rcx), %ecx
	testb	%cl, %cl
	je	.L765
	movq	%rdx, %rsi
	andl	$7, %esi
	cmpb	%sil, %cl
	jle	.L2365
.L765:
	movzbl	1(%rax), %ecx
.LVL765:
	cmpb	$100, %cl
	jne	.L766
	leaq	2(%rax), %rdi
	movq	%rdi, %rdx
	shrq	$3, %rdx
	movzbl	2147450880(%rdx), %edx
	testb	%dl, %dl
	je	.L767
	movq	%rdi, %rcx
.LVL766:
	andl	$7, %ecx
	cmpb	%cl, %dl
	jle	.L2366
.L767:
.LVL767:
	cmpb	$100, 2(%rax)
	jne	.L764
	leaq	3(%rax), %rdi
	movq	%rdi, %rdx
	shrq	$3, %rdx
	movzbl	2147450880(%rdx), %edx
	testb	%dl, %dl
	je	.L769
	movq	%rdi, %rcx
	andl	$7, %ecx
	cmpb	%cl, %dl
	jle	.L2367
.L769:
.LVL768:
.LBE573:
.LBE572:
	cmpb	$0, 3(%rax)
	jne	.L764
	leal	1(%r8), %edx
	cmpl	%edx, %r13d
	jle	.L764
.LVL769:
	.loc 1 918 0
	movslq	%edx, %rax
.LVL770:
	leaq	(%r12,%rax,8), %rdi
.LVL771:
	movq	%rdi, %rax
	shrq	$3, %rax
	cmpb	$0, 2147450880(%rax)
	jne	.L2368
	movq	(%rdi), %rax
	movl	%edx, %r8d
	movq	%rax, data_dir(%rip)
	jmp	.L752
.LVL772:
.L766:
.LBB576:
.LBB577:
	.loc 1 920 0
	cmpb	$115, %cl
	jne	.L771
	leaq	2(%rax), %rdi
	movq	%rdi, %rdx
	shrq	$3, %rdx
	movzbl	2147450880(%rdx), %edx
	testb	%dl, %dl
	je	.L772
	movq	%rdi, %rcx
.LVL773:
	andl	$7, %ecx
	cmpb	%cl, %dl
	jle	.L2369
.L772:
.LVL774:
.LBE577:
.LBE576:
	cmpb	$0, 2(%rax)
	jne	.L764
	.loc 1 921 0
	movl	$0, no_symlink_check(%rip)
	jmp	.L752
.LVL775:
.L771:
.LBB579:
	.loc 1 922 0
	movl	$.LC81, %edi
	movl	$5, %ecx
.LVL776:
	movq	%rax, %rsi
.LBE579:
	repz; cmpsb
	jne	.L1219
.LVL777:
.L1218:
	.loc 1 923 0
	movl	$1, no_symlink_check(%rip)
	jmp	.L752
.LVL778:
.L2369:
.LBB580:
.LBB578:
	.loc 1 920 0
	call	__asan_report_load1
.LVL779:
.L764:
.LBE578:
.LBE580:
.LBB581:
	.loc 1 922 0
	movl	$.LC81, %edi
	movl	$5, %ecx
	movq	%rax, %rsi
.LBE581:
	repz; cmpsb
	je	.L1218
.LVL780:
.LBB582:
.LBB583:
	.loc 1 924 0
	testl	%r9d, %r9d
	jne	.L790
	leaq	1(%rax), %rdx
.LVL781:
.L1219:
	movq	%rdx, %rcx
	shrq	$3, %rcx
	movzbl	2147450880(%rcx), %ecx
	testb	%cl, %cl
	je	.L775
	movq	%rdx, %rsi
	andl	$7, %esi
	cmpb	%sil, %cl
	jle	.L2370
.L775:
	movzbl	1(%rax), %ecx
.LVL782:
	cmpb	$117, %cl
	jne	.L776
	leaq	2(%rax), %rdi
	movq	%rdi, %rdx
	shrq	$3, %rdx
	movzbl	2147450880(%rdx), %edx
	testb	%dl, %dl
	je	.L777
	movq	%rdi, %rcx
.LVL783:
	andl	$7, %ecx
	cmpb	%cl, %dl
	jle	.L2371
.L777:
.LVL784:
.LBE583:
.LBE582:
	cmpb	$0, 2(%rax)
	jne	.L790
	leal	1(%r8), %edx
	cmpl	%edx, %r13d
	jle	.L790
.LVL785:
	.loc 1 927 0
	movslq	%edx, %rax
.LVL786:
	leaq	(%r12,%rax,8), %rdi
.LVL787:
	movq	%rdi, %rax
	shrq	$3, %rax
	cmpb	$0, 2147450880(%rax)
	jne	.L2372
	movq	(%rdi), %rax
	movl	%edx, %r8d
	movq	%rax, user(%rip)
	jmp	.L752
.LVL788:
.L776:
.LBB585:
.LBB586:
	.loc 1 929 0
	cmpb	$99, %cl
	jne	.L1235
	leaq	2(%rax), %rdi
	movq	%rdi, %rcx
.LVL789:
	shrq	$3, %rcx
	movzbl	2147450880(%rcx), %ecx
	testb	%cl, %cl
	je	.L781
	movq	%rdi, %rsi
	andl	$7, %esi
	cmpb	%sil, %cl
	jle	.L2373
.L781:
.LVL790:
.LBE586:
.LBE585:
	cmpb	$0, 2(%rax)
	jne	.L790
	leal	1(%r8), %ecx
	cmpl	%ecx, %r13d
	jle	.L2374
.LVL791:
	.loc 1 932 0
	movslq	%ecx, %rax
.LVL792:
	leaq	(%r12,%rax,8), %rdi
.LVL793:
	movq	%rdi, %rax
	shrq	$3, %rax
	cmpb	$0, 2147450880(%rax)
	jne	.L2375
	movq	(%rdi), %rax
	movl	%ecx, %r8d
	movq	%rax, cgi_pattern(%rip)
	jmp	.L752
.LVL794:
.L1235:
.LBB588:
.LBB589:
	.loc 1 934 0
	cmpb	$116, %cl
	jne	.L785
	leaq	2(%rax), %rdi
	movq	%rdi, %rsi
	shrq	$3, %rsi
	movzbl	2147450880(%rsi), %esi
	testb	%sil, %sil
	je	.L786
	movq	%rdi, %r10
	andl	$7, %r10d
	cmpb	%r10b, %sil
	jle	.L2376
.L786:
.LVL795:
.LBE589:
.LBE588:
	cmpb	$0, 2(%rax)
	jne	.L790
	leal	1(%r8), %esi
	cmpl	%esi, %r13d
	jle	.L788
.LVL796:
	.loc 1 937 0
	movslq	%esi, %rax
.LVL797:
	leaq	(%r12,%rax,8), %rdi
.LVL798:
	movq	%rdi, %rax
	shrq	$3, %rax
	cmpb	$0, 2147450880(%rax)
	jne	.L2377
	movq	(%rdi), %rax
	movl	%esi, %r8d
	movq	%rax, throttlefile(%rip)
	jmp	.L752
.LVL799:
.L788:
	movq	%rdx, %rsi
	shrq	$3, %rsi
	movzbl	2147450880(%rsi), %esi
	testb	%sil, %sil
	je	.L785
	movq	%rdx, %rdi
	andl	$7, %edi
	cmpb	%dil, %sil
	jle	.L2378
.LVL800:
.L785:
.LBB591:
.LBB592:
	.loc 1 939 0
	cmpb	$104, %cl
	jne	.L792
	leaq	2(%rax), %rdi
	movq	%rdi, %rsi
	shrq	$3, %rsi
	movzbl	2147450880(%rsi), %esi
	testb	%sil, %sil
	je	.L793
	movq	%rdi, %r10
	andl	$7, %r10d
	cmpb	%r10b, %sil
	jle	.L2379
.L793:
.LVL801:
.LBE592:
.LBE591:
	cmpb	$0, 2(%rax)
	jne	.L790
	leal	1(%r8), %esi
	cmpl	%esi, %r13d
	jle	.L774
.LVL802:
	.loc 1 942 0
	movslq	%esi, %rax
.LVL803:
	leaq	(%r12,%rax,8), %rdi
.LVL804:
	movq	%rdi, %rax
	shrq	$3, %rax
	cmpb	$0, 2147450880(%rax)
	jne	.L2380
	movq	(%rdi), %rax
	movl	%esi, %r8d
	movq	%rax, hostname(%rip)
	jmp	.L752
.LVL805:
.L774:
	movq	%rdx, %rsi
	shrq	$3, %rsi
	movzbl	2147450880(%rsi), %esi
	testb	%sil, %sil
	je	.L792
	movq	%rdx, %rdi
	andl	$7, %edi
	cmpb	%dil, %sil
	jle	.L2381
.LVL806:
.L792:
.LBB594:
.LBB595:
	.loc 1 944 0
	cmpb	$108, %cl
	jne	.L796
	leaq	2(%rax), %rdi
	movq	%rdi, %rsi
	shrq	$3, %rsi
	movzbl	2147450880(%rsi), %esi
	testb	%sil, %sil
	je	.L797
	movq	%rdi, %r10
	andl	$7, %r10d
	cmpb	%r10b, %sil
	jle	.L2382
.L797:
.LVL807:
.LBE595:
.LBE594:
	cmpb	$0, 2(%rax)
	jne	.L790
	leal	1(%r8), %esi
	cmpl	%esi, %r13d
	jle	.L798
.LVL808:
	.loc 1 947 0
	movslq	%esi, %rax
.LVL809:
	leaq	(%r12,%rax,8), %rdi
.LVL810:
	movq	%rdi, %rax
	shrq	$3, %rax
	cmpb	$0, 2147450880(%rax)
	jne	.L2383
	movq	(%rdi), %rax
	movl	%esi, %r8d
	movq	%rax, logfile(%rip)
	jmp	.L752
.LVL811:
.L798:
	movq	%rdx, %rsi
	shrq	$3, %rsi
	movzbl	2147450880(%rsi), %esi
	testb	%sil, %sil
	je	.L796
	movq	%rdx, %rdi
	andl	$7, %edi
	cmpb	%dil, %sil
	jle	.L2384
.LVL812:
.L796:
.LBB597:
.LBB598:
	.loc 1 949 0
	cmpb	$118, %cl
	jne	.L790
	leaq	2(%rax), %rdi
	movq	%rdi, %rdx
	shrq	$3, %rdx
	movzbl	2147450880(%rdx), %edx
	testb	%dl, %dl
	je	.L802
	movq	%rdi, %rcx
.LVL813:
	andl	$7, %ecx
	cmpb	%cl, %dl
	jle	.L2385
.L802:
.LVL814:
.LBE598:
.LBE597:
	cmpb	$0, 2(%rax)
	jne	.L790
	.loc 1 950 0
	movl	$1, do_vhost(%rip)
	jmp	.L752
.LVL815:
.L2385:
.LBB600:
.LBB599:
	.loc 1 949 0
	call	__asan_report_load1
.LVL816:
.L2383:
.LBE599:
.LBE600:
	.loc 1 947 0
	call	__asan_report_load8
.LVL817:
.L2377:
	.loc 1 937 0
	call	__asan_report_load8
.LVL818:
.L2380:
	.loc 1 942 0
	call	__asan_report_load8
.LVL819:
.L2379:
.LBB601:
.LBB593:
	.loc 1 939 0
	call	__asan_report_load1
.LVL820:
.L2382:
.LBE593:
.LBE601:
.LBB602:
.LBB596:
	.loc 1 944 0
	call	__asan_report_load1
.LVL821:
.L2381:
	movq	%rdx, %rdi
	call	__asan_report_load1
.LVL822:
.L2373:
.LBE596:
.LBE602:
.LBB603:
.LBB587:
	.loc 1 929 0
	call	__asan_report_load1
.LVL823:
.L2376:
.LBE587:
.LBE603:
.LBB604:
.LBB590:
	.loc 1 934 0
	call	__asan_report_load1
.LVL824:
.L2384:
	movq	%rdx, %rdi
	call	__asan_report_load1
.LVL825:
.L2378:
	movq	%rdx, %rdi
	call	__asan_report_load1
.LVL826:
.L1250:
.LBE590:
.LBE604:
.LBE650:
.LBE771:
.LBB772:
.LBB663:
	.loc 1 1293 0
	movl	$128, %esi
	movq	%r8, %rdi
	call	__asan_report_store_n
.LVL827:
.L2185:
	.loc 1 1287 0
	movq	hostname(%rip), %rdx
	movl	$2, %edi
.LVL828:
	movl	$128, %ecx
	movl	$.LC87, %esi
	xorl	%eax, %eax
	call	syslog
.LVL829:
	.loc 1 1291 0
	call	__asan_handle_no_return
.LVL830:
	movl	$1, %edi
	call	exit
.LVL831:
.L845:
	.loc 1 1298 0
	testq	%rbx, %rbx
	je	.L1211
	.loc 1 1282 0
	movl	$0, (%rsp)
	jmp	.L1212
.LVL832:
.L2186:
	.loc 1 1294 0
	movq	%rdx, %rdi
	call	__asan_report_load4
.LVL833:
.L1211:
	.loc 1 1315 0
	movq	%rbp, %rdi
	call	freeaddrinfo
.LVL834:
.L1201:
.LBE663:
.LBE772:
	.loc 1 389 0
	xorl	%eax, %eax
	movl	$.LC88, %esi
	movl	$3, %edi
	call	syslog
.LVL835:
	.loc 1 390 0
	movl	$stderr, %eax
	movq	argv0(%rip), %rdx
	shrq	$3, %rax
	cmpb	$0, 2147450880(%rax)
	jne	.L2386
	movq	stderr(%rip), %rdi
	movl	$.LC89, %esi
	xorl	%eax, %eax
	call	fprintf
.LVL836:
	.loc 1 391 0
	call	__asan_handle_no_return
.LVL837:
	movl	$1, %edi
	call	exit
.LVL838:
.L838:
.LBB773:
.LBB664:
	.loc 1 1315 0
	xorl	%edi, %edi
	call	freeaddrinfo
.LVL839:
.LBE664:
.LBE773:
	jmp	.L1201
.LVL840:
.L2182:
.LBB774:
.LBB665:
	.loc 1 1266 0
	call	__asan_report_load8
.LVL841:
.L2184:
	.loc 1 1285 0
	movq	%rdx, %rdi
.LVL842:
	call	__asan_report_load4
.LVL843:
.L2181:
	.loc 1 1254 0
	movl	%eax, %edi
	call	gai_strerror
.LVL844:
	movq	hostname(%rip), %rdx
	movq	%rax, %rcx
	movl	$.LC85, %esi
	xorl	%eax, %eax
	movl	$2, %edi
	call	syslog
.LVL845:
	.loc 1 1257 0
	movl	%ebx, %edi
	call	gai_strerror
.LVL846:
	movl	$stderr, %esi
	movq	%rax, %r8
	movq	hostname(%rip), %rcx
	shrq	$3, %rsi
	movq	argv0(%rip), %rdx
	cmpb	$0, 2147450880(%rsi)
	jne	.L2387
	movq	stderr(%rip), %rdi
	movl	$.LC86, %esi
	xorl	%eax, %eax
	call	fprintf
.LVL847:
	.loc 1 1260 0
	call	__asan_handle_no_return
.LVL848:
	movl	$1, %edi
	call	exit
.LVL849:
.L2386:
.LBE665:
.LBE774:
	.loc 1 390 0
	movl	$stderr, %edi
	call	__asan_report_load8
.LVL850:
.L2387:
.LBB775:
.LBB666:
	.loc 1 1257 0
	movl	$stderr, %edi
	call	__asan_report_load8
.LVL851:
.L2188:
	.loc 1 1294 0
	movq	%r8, %rdi
	call	__asan_report_store_n
.LVL852:
.L1251:
	call	__asan_report_load_n
.LVL853:
.L2187:
	call	__asan_report_load8
.LVL854:
.L2189:
	.loc 1 1302 0
	movq	%rdx, %rdi
	call	__asan_report_load4
.LVL855:
.L2190:
	.loc 1 1304 0
	movq	hostname(%rip), %rdx
	movl	$2, %edi
	movl	$128, %ecx
	movl	$.LC87, %esi
	xorl	%eax, %eax
	call	syslog
.LVL856:
	.loc 1 1308 0
	call	__asan_handle_no_return
.LVL857:
	movl	$1, %edi
	call	exit
.LVL858:
.L2350:
.LBE666:
.LBE775:
.LBB776:
.LBB742:
	.loc 1 1623 0
	movl	$httpd_err400title, %edi
	call	__asan_report_load8
.LVL859:
.L2349:
	movl	$httpd_err400form, %edi
	call	__asan_report_load8
.LVL860:
.L2165:
.LBE742:
.LBE776:
.LBB777:
.LBB651:
.LBB605:
.LBB402:
	.loc 1 885 0
	call	__asan_report_load1
.LVL861:
.L2172:
.LBE402:
.LBE605:
.LBB606:
.LBB407:
	.loc 1 890 0
	call	__asan_report_load1
.LVL862:
.L2173:
.LBE407:
.LBE606:
	.loc 1 893 0
	movslq	8(%rsp), %rax
.LVL863:
	leaq	(%r12,%rax,8), %rdi
	movq	%rdi, %rax
	shrq	$3, %rax
	cmpb	$0, 2147450880(%rax)
	jne	.L2388
	movq	(%rdi), %rbx
.LVL864:
.LBB607:
.LBB563:
	.loc 1 1008 0
	movl	$.LC50, %esi
	movq	%rbx, %rdi
	call	fopen
.LVL865:
	.loc 1 1009 0
	testq	%rax, %rax
	.loc 1 1008 0
	movq	%rax, %r14
.LVL866:
	.loc 1 1009 0
	je	.L2389
.LVL867:
.L679:
	.loc 1 1015 0
	movq	(%rsp), %rdi
	movq	%r14, %rdx
	movl	$10000, %esi
	call	fgets
.LVL868:
	testq	%rax, %rax
	je	.L2390
	.loc 1 1018 0
	movq	(%rsp), %rdi
	movl	$35, %esi
	call	strchr
.LVL869:
	testq	%rax, %rax
	je	.L680
	.loc 1 1019 0
	movq	%rax, %rdx
	shrq	$3, %rdx
	movzbl	2147450880(%rdx), %edx
	testb	%dl, %dl
	je	.L681
	movq	%rax, %rcx
	andl	$7, %ecx
	cmpb	%cl, %dl
	jle	.L2391
.L681:
	movb	$0, (%rax)
.L680:
.LVL870:
.LBB427:
	.loc 1 1023 0
	movq	(%rsp), %rbx
	movl	$.LC51, %esi
	movq	%rbx, %rdi
	call	strspn
.LVL871:
.LBE427:
	addq	%rax, %rbx
.LVL872:
	.loc 1 1026 0
	movq	%rbx, %rax
	shrq	$3, %rax
	movzbl	2147450880(%rax), %eax
	testb	%al, %al
	je	.L682
	movq	%rbx, %rdx
	andl	$7, %edx
	cmpb	%dl, %al
	jle	.L2392
	.p2align 4,,10
	.p2align 3
.L682:
	cmpb	$0, (%rbx)
	je	.L679
.LVL873:
.LBB428:
	.loc 1 1029 0
	movl	$.LC51, %esi
	movq	%rbx, %rdi
	call	strcspn
.LVL874:
.LBE428:
	addq	%rbx, %rax
.LVL875:
	.loc 1 1031 0
	movq	%rax, %rdx
	shrq	$3, %rdx
	movzbl	2147450880(%rdx), %edx
	testb	%dl, %dl
	je	.L684
	movq	%rax, %rcx
	andl	$7, %ecx
	cmpb	%cl, %dl
	jle	.L2393
.L684:
	movzbl	(%rax), %edx
	cmpb	$13, %dl
	sete	%sil
	cmpb	$32, %dl
	sete	%cl
	orb	%cl, %sil
	jne	.L1843
	subl	$9, %edx
	cmpb	$1, %dl
	ja	.L1232
	.p2align 4,,10
	.p2align 3
.L1843:
	.loc 1 1032 0
	movq	%rax, %rdx
	leaq	1(%rax), %r15
.LVL876:
	shrq	$3, %rdx
	movzbl	2147450880(%rdx), %edx
	testb	%dl, %dl
	je	.L687
	movq	%rax, %rsi
	andl	$7, %esi
	cmpb	%sil, %dl
	jle	.L2394
.L687:
	.loc 1 1031 0
	movq	%r15, %rax
	.loc 1 1032 0
	movb	$0, -1(%r15)
.LVL877:
	.loc 1 1031 0
	shrq	$3, %rax
.LVL878:
	movzbl	2147450880(%rax), %eax
	testb	%al, %al
	je	.L688
	movq	%r15, %rdx
	andl	$7, %edx
	cmpb	%dl, %al
	jle	.L2395
.L688:
	movzbl	(%r15), %edx
	movq	%r15, %rax
	cmpb	$13, %dl
	sete	%dil
	cmpb	$32, %dl
	sete	%sil
	orb	%sil, %dil
	jne	.L1843
.LVL879:
	subl	$9, %edx
	cmpb	$1, %dl
	jbe	.L1843
.L685:
.LVL880:
	.loc 1 1035 0
	movl	$61, %esi
	movq	%rbx, %rdi
	call	strchr
.LVL881:
	.loc 1 1036 0
	testq	%rax, %rax
	je	.L690
	.loc 1 1037 0
	movq	%rax, %rdx
	leaq	1(%rax), %rbp
.LVL882:
	shrq	$3, %rdx
	movzbl	2147450880(%rdx), %edx
	testb	%dl, %dl
	je	.L691
	movq	%rax, %rsi
	andl	$7, %esi
	cmpb	%sil, %dl
	jle	.L2396
.L691:
	movb	$0, (%rax)
	.loc 1 1039 0
	movl	$.LC52, %esi
	movq	%rbx, %rdi
	call	strcasecmp
.LVL883:
	testl	%eax, %eax
	jne	.L692
.LVL884:
.LBB429:
.LBB430:
	.loc 1 1208 0
	testq	%rbp, %rbp
	jne	.L2397
.LVL885:
.L693:
.LBE430:
.LBE429:
	.loc 1 1042 0
	movl	$1, debug(%rip)
.L694:
.LVL886:
.LBB432:
	.loc 1 1185 0
	movl	$.LC51, %esi
	movq	%r15, %rdi
	call	strspn
.LVL887:
.LBE432:
	leaq	(%r15,%rax), %rbx
.LVL888:
	.loc 1 1026 0
	movq	%rbx, %rax
	shrq	$3, %rax
	movzbl	2147450880(%rax), %eax
	testb	%al, %al
	je	.L682
	movq	%rbx, %rdx
	andl	$7, %edx
	cmpb	%dl, %al
	jg	.L682
	movq	%rbx, %rdi
	call	__asan_report_load1
.LVL889:
	.p2align 4,,10
	.p2align 3
.L692:
	.loc 1 1044 0
	movl	$.LC53, %esi
	movq	%rbx, %rdi
	call	strcasecmp
.LVL890:
	testl	%eax, %eax
	jne	.L695
.LVL891:
.LBB433:
.LBB434:
	.loc 1 1196 0
	testq	%rbp, %rbp
	je	.L1208
.LVL892:
.LBE434:
.LBE433:
.LBB436:
.LBB437:
	.loc 2 286 0
	movl	$10, %edx
	xorl	%esi, %esi
	movq	%rbp, %rdi
	call	strtol
.LVL893:
.LBE437:
.LBE436:
	.loc 1 1047 0
	movw	%ax, port(%rip)
	jmp	.L694
.LVL894:
.L695:
	.loc 1 1049 0
	movl	$.LC54, %esi
	movq	%rbx, %rdi
	call	strcasecmp
.LVL895:
	testl	%eax, %eax
	jne	.L697
.LVL896:
.LBB438:
.LBB439:
	.loc 1 1196 0
	testq	%rbp, %rbp
	je	.L1216
.LVL897:
.LBE439:
.LBE438:
.LBB441:
.LBB426:
	.loc 1 1223 0
	movq	%rbp, %rdi
	call	__strdup
.LVL898:
	.loc 1 1224 0
	testq	%rax, %rax
	je	.L706
.LBE426:
.LBE441:
	.loc 1 1052 0
	movq	%rax, dir(%rip)
	jmp	.L694
.LVL899:
.L690:
	.loc 1 1039 0
	movl	$.LC52, %esi
	movq	%rbx, %rdi
	call	strcasecmp
.LVL900:
	testl	%eax, %eax
	je	.L693
	.loc 1 1044 0
	movl	$.LC53, %esi
	movq	%rbx, %rdi
	call	strcasecmp
.LVL901:
	testl	%eax, %eax
	jne	.L2398
.LVL902:
.L1208:
.LBB442:
.LBB435:
	call	__asan_handle_no_return
.LVL903:
	movq	%rbx, %rdi
	call	value_required.part.2
.LVL904:
.L697:
.LBE435:
.LBE442:
	.loc 1 1054 0
	movl	$.LC55, %esi
	movq	%rbx, %rdi
	call	strcasecmp
.LVL905:
	testl	%eax, %eax
	jne	.L700
.LVL906:
.LBB443:
.LBB444:
	.loc 1 1208 0
	testq	%rbp, %rbp
	jne	.L2399
.LVL907:
.L701:
.LBE444:
.LBE443:
	.loc 1 1057 0
	movl	$1, do_chroot(%rip)
	.loc 1 1058 0
	movl	$1, no_symlink_check(%rip)
	jmp	.L694
.LVL908:
.L1232:
	.loc 1 1031 0
	movq	%rax, %r15
	jmp	.L685
.LVL909:
.L2401:
	.loc 1 1054 0
	movl	$.LC55, %esi
	movq	%rbx, %rdi
	.loc 1 1049 0
	xorl	%ebp, %ebp
	.loc 1 1054 0
	call	strcasecmp
.LVL910:
	testl	%eax, %eax
	je	.L701
.LVL911:
.L700:
	.loc 1 1060 0
	movl	$.LC56, %esi
	movq	%rbx, %rdi
	call	strcasecmp
.LVL912:
	testl	%eax, %eax
	jne	.L702
.LVL913:
.LBB446:
.LBB447:
	.loc 1 1208 0
	testq	%rbp, %rbp
	jne	.L2400
.LBE447:
.LBE446:
	.loc 1 1063 0
	movl	$0, do_chroot(%rip)
	.loc 1 1064 0
	movl	$0, no_symlink_check(%rip)
	jmp	.L694
.LVL914:
.L2398:
	.loc 1 1049 0
	movl	$.LC54, %esi
	movq	%rbx, %rdi
	call	strcasecmp
.LVL915:
	testl	%eax, %eax
	jne	.L2401
.LVL916:
.L1216:
.LBB449:
.LBB440:
	call	__asan_handle_no_return
.LVL917:
	movq	%rbx, %rdi
	call	value_required.part.2
.LVL918:
	.p2align 4,,10
	.p2align 3
.L702:
.LBE440:
.LBE449:
	.loc 1 1066 0
	movl	$.LC57, %esi
	movq	%rbx, %rdi
	call	strcasecmp
.LVL919:
	testl	%eax, %eax
	jne	.L704
.LVL920:
.LBB450:
.LBB451:
	.loc 1 1196 0
	testq	%rbp, %rbp
	je	.L2402
.LVL921:
.LBE451:
.LBE450:
.LBB453:
.LBB454:
	.loc 1 1223 0
	movq	%rbp, %rdi
	call	__strdup
.LVL922:
	.loc 1 1224 0
	testq	%rax, %rax
	je	.L706
.LBE454:
.LBE453:
	.loc 1 1069 0
	movq	%rax, data_dir(%rip)
	jmp	.L694
.LVL923:
.L704:
	.loc 1 1071 0
	movl	$.LC58, %esi
	movq	%rbx, %rdi
	call	strcasecmp
.LVL924:
	testl	%eax, %eax
	jne	.L707
.LVL925:
.LBB455:
.LBB456:
	.loc 1 1208 0
	testq	%rbp, %rbp
	jne	.L2403
.L708:
.LBE456:
.LBE455:
	.loc 1 1074 0
	movl	$0, no_symlink_check(%rip)
	jmp	.L694
.L707:
	.loc 1 1076 0
	movl	$.LC59, %esi
	movq	%rbx, %rdi
	call	strcasecmp
.LVL926:
	testl	%eax, %eax
	jne	.L709
.LVL927:
.LBB458:
.LBB459:
	.loc 1 1208 0
	testq	%rbp, %rbp
	jne	.L2404
.L710:
.LBE459:
.LBE458:
	.loc 1 1079 0
	movl	$1, no_symlink_check(%rip)
	jmp	.L694
.L709:
	.loc 1 1081 0
	movl	$.LC60, %esi
	movq	%rbx, %rdi
	call	strcasecmp
.LVL928:
	testl	%eax, %eax
	jne	.L711
.LVL929:
.LBB461:
.LBB462:
	.loc 1 1208 0
	testq	%rbp, %rbp
	je	.L708
	call	__asan_handle_no_return
.LVL930:
	movq	%rbx, %rdi
	call	no_value_required.part.1
.LVL931:
	.p2align 4,,10
	.p2align 3
.L711:
.LBE462:
.LBE461:
	.loc 1 1086 0
	movl	$.LC61, %esi
	movq	%rbx, %rdi
	call	strcasecmp
.LVL932:
	testl	%eax, %eax
	jne	.L712
.LVL933:
.LBB463:
.LBB464:
	.loc 1 1208 0
	testq	%rbp, %rbp
	je	.L710
	call	__asan_handle_no_return
.LVL934:
	movq	%rbx, %rdi
	call	no_value_required.part.1
.LVL935:
.L2404:
.LBE464:
.LBE463:
.LBB465:
.LBB460:
	call	__asan_handle_no_return
.LVL936:
	movq	%rbx, %rdi
	call	no_value_required.part.1
.LVL937:
.L712:
.LBE460:
.LBE465:
	.loc 1 1091 0
	movl	$.LC62, %esi
	movq	%rbx, %rdi
	call	strcasecmp
.LVL938:
	testl	%eax, %eax
	jne	.L713
.LVL939:
.LBB466:
.LBB467:
	.loc 1 1196 0
	testq	%rbp, %rbp
	je	.L2405
.LVL940:
.LBE467:
.LBE466:
.LBB469:
.LBB470:
	.loc 1 1223 0
	movq	%rbp, %rdi
	call	__strdup
.LVL941:
	.loc 1 1224 0
	testq	%rax, %rax
	je	.L706
.LBE470:
.LBE469:
	.loc 1 1094 0
	movq	%rax, user(%rip)
	jmp	.L694
.LVL942:
.L2400:
.LBB471:
.LBB448:
	call	__asan_handle_no_return
.LVL943:
	movq	%rbx, %rdi
	call	no_value_required.part.1
.LVL944:
.L2393:
	movq	%rax, %rdi
.LBE448:
.LBE471:
	.loc 1 1031 0
	call	__asan_report_load1
.LVL945:
.L2402:
.LBB472:
.LBB452:
	call	__asan_handle_no_return
.LVL946:
	movq	%rbx, %rdi
	call	value_required.part.2
.LVL947:
.L2403:
.LBE452:
.LBE472:
.LBB473:
.LBB457:
	call	__asan_handle_no_return
.LVL948:
	movq	%rbx, %rdi
	call	no_value_required.part.1
.LVL949:
.L2405:
.LBE457:
.LBE473:
.LBB474:
.LBB468:
	call	__asan_handle_no_return
.LVL950:
	movq	%rbx, %rdi
	call	value_required.part.2
.LVL951:
.L713:
.LBE468:
.LBE474:
	.loc 1 1096 0
	movl	$.LC63, %esi
	movq	%rbx, %rdi
	call	strcasecmp
.LVL952:
	testl	%eax, %eax
	jne	.L715
.LVL953:
.LBB475:
.LBB476:
	.loc 1 1196 0
	testq	%rbp, %rbp
	je	.L2406
.LVL954:
.LBE476:
.LBE475:
.LBB478:
.LBB479:
	.loc 1 1223 0
	movq	%rbp, %rdi
	call	__strdup
.LVL955:
	.loc 1 1224 0
	testq	%rax, %rax
	je	.L706
.LBE479:
.LBE478:
	.loc 1 1099 0
	movq	%rax, cgi_pattern(%rip)
	jmp	.L694
.LVL956:
.L2390:
	.loc 1 1189 0
	movq	%r14, %rdi
	call	fclose
.LVL957:
	movl	8(%rsp), %r8d
	jmp	.L752
.LVL958:
.L2392:
	.loc 1 1026 0
	movq	%rbx, %rdi
	call	__asan_report_load1
.LVL959:
.L2394:
	movq	%rax, %rdi
	.loc 1 1032 0
	call	__asan_report_store1
.LVL960:
.L2395:
	.loc 1 1031 0
	movq	%r15, %rdi
	call	__asan_report_load1
.LVL961:
.L2397:
.LBB480:
.LBB431:
	call	__asan_handle_no_return
.LVL962:
	movq	%rbx, %rdi
	call	no_value_required.part.1
.LVL963:
.L2399:
.LBE431:
.LBE480:
.LBB481:
.LBB445:
	call	__asan_handle_no_return
.LVL964:
	movq	%rbx, %rdi
	call	no_value_required.part.1
.LVL965:
.L2396:
.LBE445:
.LBE481:
	.loc 1 1037 0
	movq	%rax, %rdi
	call	__asan_report_store1
.LVL966:
.L2406:
.LBB482:
.LBB477:
	call	__asan_handle_no_return
.LVL967:
	movq	%rbx, %rdi
	call	value_required.part.2
.LVL968:
.L715:
.LBE477:
.LBE482:
	.loc 1 1101 0
	movl	$.LC64, %esi
	movq	%rbx, %rdi
	call	strcasecmp
.LVL969:
	testl	%eax, %eax
	jne	.L717
.LVL970:
.LBB483:
.LBB484:
	.loc 1 1196 0
	testq	%rbp, %rbp
	je	.L2407
.LVL971:
.LBE484:
.LBE483:
.LBB486:
.LBB487:
	.loc 2 286 0
	movl	$10, %edx
	xorl	%esi, %esi
	movq	%rbp, %rdi
	call	strtol
.LVL972:
	movl	%eax, cgi_limit(%rip)
	jmp	.L694
.LVL973:
.L2389:
.LBE487:
.LBE486:
	.loc 1 1011 0
	movq	%rbx, %rdi
	call	perror
.LVL974:
	.loc 1 1012 0
	call	__asan_handle_no_return
.LVL975:
	movl	$1, %edi
	call	exit
.LVL976:
.L2388:
.LBE563:
.LBE607:
	.loc 1 893 0
	call	__asan_report_load8
.LVL977:
.L2367:
.LBB608:
.LBB574:
	.loc 1 915 0
	call	__asan_report_load1
.LVL978:
.L2368:
.LBE574:
.LBE608:
	.loc 1 918 0
	call	__asan_report_load8
.LVL979:
.L2370:
.LBB609:
.LBB584:
	.loc 1 924 0
	movq	%rdx, %rdi
	call	__asan_report_load1
.LVL980:
.L2371:
	call	__asan_report_load1
.LVL981:
.L2372:
.LBE584:
.LBE609:
	.loc 1 927 0
	call	__asan_report_load8
.LVL982:
.L2374:
	movq	%rdx, %rcx
	shrq	$3, %rcx
	movzbl	2147450880(%rcx), %ecx
	testb	%cl, %cl
	je	.L790
	movq	%rdx, %rsi
	andl	$7, %esi
	cmpb	%sil, %cl
	jle	.L2408
.LVL983:
.L790:
.LBB610:
	.loc 1 951 0
	movl	$.LC82, %edi
	movl	$5, %ecx
	movq	%rax, %rsi
.LBE610:
	repz; cmpsb
	jne	.L803
	.loc 1 952 0
	movl	$0, do_vhost(%rip)
	jmp	.L752
.LVL984:
.L2375:
	.loc 1 932 0
	call	__asan_report_load8
.LVL985:
.L803:
.LBB611:
.LBB612:
	.loc 1 953 0
	testl	%r9d, %r9d
	jne	.L804
	leaq	1(%rax), %rdx
	movq	%rdx, %rcx
	shrq	$3, %rcx
	movzbl	2147450880(%rcx), %ecx
	testb	%cl, %cl
	je	.L805
	movq	%rdx, %rsi
	andl	$7, %esi
	cmpb	%sil, %cl
	jle	.L2409
.L805:
.LVL986:
	cmpb	$103, 1(%rax)
	jne	.L806
	leaq	2(%rax), %rdi
	movq	%rdi, %rcx
	shrq	$3, %rcx
	movzbl	2147450880(%rcx), %ecx
	testb	%cl, %cl
	je	.L807
	movq	%rdi, %rsi
	andl	$7, %esi
	cmpb	%sil, %cl
	jle	.L2410
.L807:
.LVL987:
.LBE612:
.LBE611:
	cmpb	$0, 2(%rax)
	jne	.L806
	.loc 1 954 0
	movl	$1, do_global_passwd(%rip)
	jmp	.L752
.LVL988:
.L806:
.LBB614:
	.loc 1 955 0
	movl	$.LC83, %edi
	movl	$5, %ecx
	movq	%rax, %rsi
.LBE614:
	repz; cmpsb
	jne	.L2411
.L1224:
	.loc 1 956 0
	movl	$0, do_global_passwd(%rip)
	jmp	.L752
.LVL989:
.L2408:
	movq	%rdx, %rdi
	call	__asan_report_load1
.LVL990:
.L804:
.LBB615:
	.loc 1 955 0
	movl	$.LC83, %edi
	movl	$5, %ecx
	movq	%rax, %rsi
.LBE615:
	repz; cmpsb
	jne	.L1210
	jmp	.L1224
.LVL991:
.L2410:
.LBB616:
.LBB613:
	.loc 1 953 0
	call	__asan_report_load1
.LVL992:
.L2409:
	movq	%rdx, %rdi
	call	__asan_report_load1
.LVL993:
.L2411:
.LBE613:
.LBE616:
.LBB617:
.LBB618:
	.loc 1 957 0
	movq	%rdx, %rcx
	shrq	$3, %rcx
	movzbl	2147450880(%rcx), %ecx
	testb	%cl, %cl
	je	.L810
	movq	%rdx, %rsi
	andl	$7, %esi
	cmpb	%sil, %cl
	jle	.L2412
.L810:
	movzbl	1(%rax), %ecx
.LVL994:
	cmpb	$105, %cl
	jne	.L811
	leaq	2(%rax), %rdi
	movq	%rdi, %rdx
	shrq	$3, %rdx
	movzbl	2147450880(%rdx), %edx
	testb	%dl, %dl
	je	.L812
	movq	%rdi, %rcx
.LVL995:
	andl	$7, %ecx
	cmpb	%cl, %dl
	jle	.L2413
.L812:
.LVL996:
.LBE618:
.LBE617:
	cmpb	$0, 2(%rax)
	jne	.L1210
	addl	$1, %r8d
.LVL997:
	cmpl	%r8d, %r13d
	jle	.L1210
.LVL998:
	.loc 1 960 0
	movslq	%r8d, %rax
.LVL999:
	leaq	(%r12,%rax,8), %rdi
.LVL1000:
	movq	%rdi, %rax
	shrq	$3, %rax
	cmpb	$0, 2147450880(%rax)
	jne	.L2414
	movq	(%rdi), %rax
	movq	%rax, pidfile(%rip)
	jmp	.L752
.LVL1001:
.L811:
.LBB620:
.LBB621:
	.loc 1 962 0
	cmpb	$84, %cl
	jne	.L1238
	leaq	2(%rax), %rdi
	movq	%rdi, %rcx
.LVL1002:
	shrq	$3, %rcx
	movzbl	2147450880(%rcx), %ecx
	testb	%cl, %cl
	je	.L816
	movq	%rdi, %rsi
	andl	$7, %esi
	cmpb	%sil, %cl
	jle	.L2415
.L816:
.LVL1003:
.LBE621:
.LBE620:
	cmpb	$0, 2(%rax)
	jne	.L1210
	addl	$1, %r8d
.LVL1004:
	cmpl	%r8d, %r13d
	jle	.L2416
.LVL1005:
	.loc 1 965 0
	movslq	%r8d, %rax
.LVL1006:
	leaq	(%r12,%rax,8), %rdi
	movq	%rdi, %rax
	shrq	$3, %rax
	cmpb	$0, 2147450880(%rax)
	jne	.L2417
	movq	(%rdi), %rax
	movq	%rax, charset(%rip)
	jmp	.L752
.LVL1007:
.L1238:
.LBB623:
.LBB624:
	.loc 1 967 0
	cmpb	$80, %cl
	jne	.L820
	leaq	2(%rax), %rdi
	movq	%rdi, %rsi
	shrq	$3, %rsi
	movzbl	2147450880(%rsi), %esi
	testb	%sil, %sil
	je	.L821
	movq	%rdi, %r9
	andl	$7, %r9d
	cmpb	%r9b, %sil
	jle	.L2418
.L821:
.LVL1008:
.LBE624:
.LBE623:
	cmpb	$0, 2(%rax)
	jne	.L1210
	leal	1(%r8), %esi
	cmpl	%esi, %r13d
	jle	.L823
.LVL1009:
	.loc 1 970 0
	movslq	%esi, %rax
.LVL1010:
	leaq	(%r12,%rax,8), %rdi
	movq	%rdi, %rax
	shrq	$3, %rax
	cmpb	$0, 2147450880(%rax)
	jne	.L2419
	movq	(%rdi), %rax
	movl	%esi, %r8d
	movq	%rax, p3p(%rip)
	jmp	.L752
.LVL1011:
.L823:
	movq	%rdx, %rsi
	shrq	$3, %rsi
	movzbl	2147450880(%rsi), %esi
	testb	%sil, %sil
	je	.L820
	movq	%rdx, %rdi
	andl	$7, %edi
	cmpb	%dil, %sil
	jle	.L2420
.LVL1012:
.L820:
.LBB626:
.LBB627:
	.loc 1 972 0
	cmpb	$77, %cl
	jne	.L826
	leaq	2(%rax), %rdi
	movq	%rdi, %rsi
	shrq	$3, %rsi
	movzbl	2147450880(%rsi), %esi
	testb	%sil, %sil
	je	.L827
	movq	%rdi, %r9
	andl	$7, %r9d
	cmpb	%r9b, %sil
	jle	.L2421
.L827:
.LVL1013:
.LBE627:
.LBE626:
	cmpb	$0, 2(%rax)
	jne	.L1210
	leal	1(%r8), %ebx
	cmpl	%ebx, %r13d
	jg	.L2422
.LVL1014:
	movq	%rdx, %rsi
	shrq	$3, %rsi
	movzbl	2147450880(%rsi), %esi
	testb	%sil, %sil
	je	.L826
	movq	%rdx, %rdi
	andl	$7, %edi
	cmpb	%dil, %sil
	jle	.L2423
.LVL1015:
.L826:
.LBB629:
.LBB630:
	.loc 1 977 0
	cmpb	$68, %cl
	jne	.L1210
	leaq	2(%rax), %rdi
	movq	%rdi, %rdx
	shrq	$3, %rdx
	movzbl	2147450880(%rdx), %edx
	testb	%dl, %dl
	je	.L830
	movq	%rdi, %rcx
.LVL1016:
	andl	$7, %ecx
	cmpb	%cl, %dl
	jle	.L2424
.L830:
.LVL1017:
.LBE630:
.LBE629:
	cmpb	$0, 2(%rax)
	jne	.L1210
	.loc 1 978 0
	movl	$1, debug(%rip)
	jmp	.L752
.LVL1018:
.L2424:
.LBB632:
.LBB631:
	.loc 1 977 0
	call	__asan_report_load1
.LVL1019:
.L2423:
	movq	%rdx, %rdi
	call	__asan_report_load1
.LVL1020:
.L2422:
.LBE631:
.LBE632:
	.loc 1 975 0
	movslq	%ebx, %rax
.LVL1021:
	leaq	(%r12,%rax,8), %rdi
	movq	%rdi, %rax
	shrq	$3, %rax
	cmpb	$0, 2147450880(%rax)
	jne	.L2425
.LVL1022:
.LBB633:
.LBB634:
	.loc 2 286 0
	movq	(%rdi), %rdi
.LVL1023:
	movl	$10, %edx
.LVL1024:
	xorl	%esi, %esi
	call	strtol
.LVL1025:
.LBE634:
.LBE633:
	.loc 1 975 0
	movl	%ebx, %r8d
.LBB636:
.LBB635:
	.loc 2 286 0
	movl	%eax, max_age(%rip)
	jmp	.L752
.LVL1026:
.L2418:
.LBE635:
.LBE636:
.LBB637:
.LBB625:
	.loc 1 967 0
	call	__asan_report_load1
.LVL1027:
.L2421:
.LBE625:
.LBE637:
.LBB638:
.LBB628:
	.loc 1 972 0
	call	__asan_report_load1
.LVL1028:
.L2425:
.LBE628:
.LBE638:
	.loc 1 975 0
	call	__asan_report_load8
.LVL1029:
.L2168:
	.loc 1 883 0
	movq	%rax, %rdi
	call	__asan_report_load1
.LVL1030:
.L2365:
.LBB639:
.LBB575:
	.loc 1 915 0
	movq	%rdx, %rdi
	call	__asan_report_load1
.LVL1031:
.L2366:
	call	__asan_report_load1
.LVL1032:
.L2175:
.LBE575:
.LBE639:
	.loc 1 898 0
	call	__asan_report_load8
.LVL1033:
.L2391:
.LBB640:
.LBB564:
	.loc 1 1019 0
	movq	%rax, %rdi
	call	__asan_report_store1
.LVL1034:
.L2407:
.LBB488:
.LBB485:
	call	__asan_handle_no_return
.LVL1035:
	movq	%rbx, %rdi
	call	value_required.part.2
.LVL1036:
.L717:
.LBE485:
.LBE488:
	.loc 1 1106 0
	movl	$.LC65, %esi
	movq	%rbx, %rdi
	call	strcasecmp
.LVL1037:
	testl	%eax, %eax
	jne	.L719
.LVL1038:
.LBB489:
.LBB490:
	.loc 1 1196 0
	testq	%rbp, %rbp
	je	.L2426
.LVL1039:
.LBE490:
.LBE489:
.LBB492:
.LBB493:
	.loc 1 1223 0
	movq	%rbp, %rdi
	call	__strdup
.LVL1040:
	.loc 1 1224 0
	testq	%rax, %rax
	je	.L706
.LBE493:
.LBE492:
	.loc 1 1109 0
	movq	%rax, url_pattern(%rip)
	jmp	.L694
.LVL1041:
.L2412:
.LBE564:
.LBE640:
.LBB641:
.LBB619:
	.loc 1 957 0
	movq	%rdx, %rdi
	call	__asan_report_load1
.LVL1042:
.L2413:
	call	__asan_report_load1
.LVL1043:
.L2417:
.LBE619:
.LBE641:
	.loc 1 965 0
	call	__asan_report_load8
.LVL1044:
.L2419:
	.loc 1 970 0
	call	__asan_report_load8
.LVL1045:
.L2364:
	movq	%rdx, %rdi
	call	__asan_report_load1
.LVL1046:
.L2420:
	movq	%rdx, %rdi
	call	__asan_report_load1
.LVL1047:
.L2414:
	.loc 1 960 0
	call	__asan_report_load8
.LVL1048:
.L2415:
.LBB642:
.LBB622:
	.loc 1 962 0
	call	__asan_report_load1
.LVL1049:
.L2426:
.LBE622:
.LBE642:
.LBB643:
.LBB565:
.LBB494:
.LBB491:
	call	__asan_handle_no_return
.LVL1050:
	movq	%rbx, %rdi
	call	value_required.part.2
.LVL1051:
.L719:
.LBE491:
.LBE494:
	.loc 1 1111 0
	movl	$.LC66, %esi
	movq	%rbx, %rdi
	call	strcasecmp
.LVL1052:
	testl	%eax, %eax
	jne	.L721
.LVL1053:
.LBB495:
.LBB496:
	.loc 1 1208 0
	testq	%rbp, %rbp
	jne	.L2427
.LBE496:
.LBE495:
	.loc 1 1114 0
	movl	$1, no_empty_referers(%rip)
	jmp	.L694
.LVL1054:
.L2235:
.LBE565:
.LBE643:
.LBE651:
.LBE777:
	.loc 1 739 0
	call	__asan_report_load4
.LVL1055:
.L2234:
	.loc 1 737 0
	call	__asan_report_load4
.LVL1056:
.L2238:
	.loc 1 758 0
	call	__errno_location
.LVL1057:
	movq	%rax, %rdx
	shrq	$3, %rdx
	movzbl	2147450880(%rdx), %ecx
	testb	%cl, %cl
	je	.L996
	movq	%rax, %rdx
	andl	$7, %edx
	addl	$3, %edx
	cmpb	%cl, %dl
	jge	.L2428
.L996:
	movl	(%rax), %eax
	cmpl	$11, %eax
	je	.L987
	cmpl	$4, %eax
	je	.L987
	.loc 1 760 0
	movl	$3, %edi
	movl	$.LC132, %esi
	xorl	%eax, %eax
	call	syslog
.LVL1058:
	.loc 1 761 0
	call	__asan_handle_no_return
.LVL1059:
	movl	$1, %edi
	call	exit
.LVL1060:
.L2236:
	.loc 1 828 0
	call	shut_down
.LVL1061:
	.loc 1 829 0
	movl	$5, %edi
	movl	$.LC44, %esi
	xorl	%eax, %eax
	call	syslog
.LVL1062:
	.loc 1 830 0
	call	closelog
.LVL1063:
	.loc 1 831 0
	call	__asan_handle_no_return
.LVL1064:
	xorl	%edi, %edi
	call	exit
.LVL1065:
.L2240:
	.loc 1 773 0
	call	__asan_report_load4
.LVL1066:
.L2237:
.LBB778:
.LBB779:
	.loc 1 331 0
	movl	no_log(%rip), %r8d
	testl	%r8d, %r8d
	jne	.L989
	cmpq	$0, hs(%rip)
	je	.L989
	.loc 1 335 0
	movq	logfile(%rip), %rdi
	testq	%rdi, %rdi
	je	.L989
.LVL1067:
.LBB780:
.LBB781:
	movq	%rdi, %rax
	shrq	$3, %rax
	movzbl	2147450880(%rax), %eax
	testb	%al, %al
	je	.L990
	movq	%rdi, %rdx
	andl	$7, %edx
	cmpb	%dl, %al
	jle	.L2429
.L990:
.LVL1068:
	cmpb	$45, (%rdi)
	jne	.L991
	leaq	1(%rdi), %rax
	movq	%rax, %rdx
	shrq	$3, %rdx
	movzbl	2147450880(%rdx), %edx
	testb	%dl, %dl
	je	.L992
	movq	%rax, %rcx
	andl	$7, %ecx
	cmpb	%cl, %dl
	jle	.L2430
.L992:
.LVL1069:
.LBE781:
.LBE780:
	cmpb	$0, 1(%rdi)
	jne	.L991
.LVL1070:
.L989:
.LBE779:
.LBE778:
	.loc 1 751 0
	movl	$0, got_hup(%rip)
	jmp	.L988
.LVL1071:
.L2428:
	.loc 1 758 0
	movq	%rax, %rdi
	call	__asan_report_load4
.LVL1072:
.L2429:
.LBB787:
.LBB786:
.LBB784:
.LBB782:
	.loc 1 335 0
	call	__asan_report_load1
.LVL1073:
.L991:
.LBE782:
.LBE784:
	.loc 1 337 0
	xorl	%eax, %eax
	movl	$.LC130, %esi
	movl	$5, %edi
.LVL1074:
	call	syslog
.LVL1075:
	.loc 1 338 0
	movq	logfile(%rip), %rdi
	movl	$.LC101, %esi
	call	fopen
.LVL1076:
	.loc 1 339 0
	movq	logfile(%rip), %rdi
	movl	$384, %esi
	.loc 1 338 0
	movq	%rax, %rbx
.LVL1077:
	.loc 1 339 0
	call	chmod
.LVL1078:
	.loc 1 340 0
	testl	%eax, %eax
	jne	.L1259
	testq	%rbx, %rbx
	je	.L1259
	.loc 1 345 0
	movq	%rbx, %rdi
	call	fileno
.LVL1079:
	movl	$1, %edx
	movl	%eax, %edi
	movl	$2, %esi
	xorl	%eax, %eax
	call	fcntl
.LVL1080:
	.loc 1 346 0
	movq	hs(%rip), %rdi
	movq	%rbx, %rsi
	call	httpd_set_logfp
.LVL1081:
	jmp	.L989
.LVL1082:
.L2430:
.LBB785:
.LBB783:
	.loc 1 335 0
	movq	%rax, %rdi
.LVL1083:
	call	__asan_report_load1
.LVL1084:
.L1259:
.LBE783:
.LBE785:
	.loc 1 342 0
	movq	logfile(%rip), %rdx
	movl	$.LC131, %esi
	movl	$2, %edi
	xorl	%eax, %eax
.LVL1085:
	call	syslog
.LVL1086:
	jmp	.L989
.LVL1087:
.L2229:
.LBE786:
.LBE787:
	.loc 1 707 0
	movl	$2, %edi
	movl	$.LC127, %esi
	xorl	%eax, %eax
	call	syslog
.LVL1088:
	.loc 1 708 0
	call	__asan_handle_no_return
.LVL1089:
	movl	$1, %edi
	call	exit
.LVL1090:
.L2226:
	.loc 1 673 0
	movl	$2, %edi
	movl	$.LC123, %esi
	call	syslog
.LVL1091:
	.loc 1 674 0
	call	__asan_handle_no_return
.LVL1092:
	movl	$1, %edi
	call	exit
.LVL1093:
.L2227:
	.loc 1 688 0
	movl	$2, %edi
	movl	$.LC124, %esi
	xorl	%eax, %eax
	call	syslog
.LVL1094:
	.loc 1 689 0
	call	__asan_handle_no_return
.LVL1095:
	movl	$1, %edi
	call	exit
.LVL1096:
.L2232:
	.loc 1 728 0
	call	__asan_report_store8
.LVL1097:
.L2231:
	.loc 1 727 0
	call	__asan_report_store4
.LVL1098:
.L2233:
	.loc 1 730 0
	call	__asan_report_store4
.LVL1099:
.L2427:
.LBB788:
.LBB652:
.LBB644:
.LBB566:
.LBB498:
.LBB497:
	call	__asan_handle_no_return
.LVL1100:
	movq	%rbx, %rdi
	call	no_value_required.part.1
.LVL1101:
.L721:
.LBE497:
.LBE498:
	.loc 1 1116 0
	movl	$.LC67, %esi
	movq	%rbx, %rdi
	call	strcasecmp
.LVL1102:
	testl	%eax, %eax
	jne	.L723
.LVL1103:
.LBB499:
.LBB500:
	.loc 1 1196 0
	testq	%rbp, %rbp
	je	.L2431
.LVL1104:
.LBE500:
.LBE499:
.LBB502:
.LBB503:
	.loc 1 1223 0
	movq	%rbp, %rdi
	call	__strdup
.LVL1105:
	.loc 1 1224 0
	testq	%rax, %rax
	je	.L706
.LBE503:
.LBE502:
	.loc 1 1119 0
	movq	%rax, local_pattern(%rip)
	jmp	.L694
.LVL1106:
.L2242:
.LBE566:
.LBE644:
.LBE652:
.LBE788:
	.loc 1 786 0
	movq	hs(%rip), %rdx
	leaq	72(%rdx), %rdi
	movq	%rdi, %rax
	shrq	$3, %rax
	movzbl	2147450880(%rax), %ecx
	testb	%cl, %cl
	je	.L1011
	movq	%rdi, %rax
	andl	$7, %eax
	addl	$3, %eax
	cmpb	%cl, %al
	jge	.L2432
.L1011:
	movl	72(%rdx), %esi
	movq	(%rsp), %rdi
	call	handle_newconnect
.LVL1107:
	testl	%eax, %eax
	jne	.L987
	jmp	.L1012
.L2239:
	.loc 1 768 0
	movq	(%rsp), %rdi
	call	tmr_run
.LVL1108:
	.loc 1 769 0
	jmp	.L987
.L2432:
	.loc 1 786 0
	call	__asan_report_load4
.LVL1109:
.L2248:
.LBB789:
.LBB743:
	.loc 1 1592 0
	movq	%rbp, %rdi
	call	__asan_report_load8
.LVL1110:
.L2247:
	.loc 1 1589 0
	movq	%r14, %rdi
	call	__asan_report_load8
.LVL1111:
.L2301:
	movq	%rbp, %rdi
	call	__asan_report_load8
.LVL1112:
.L2300:
	movq	%r13, %rdi
	call	__asan_report_load8
.LVL1113:
.L2249:
	.loc 1 1592 0
	movq	%r13, %rdi
	call	__asan_report_load8
.LVL1114:
.L2303:
	.loc 1 1605 0
	movq	%r13, %rdi
	call	__asan_report_load4
.LVL1115:
.L2304:
	.loc 1 1610 0
	movl	$httpd_err400form, %eax
.LVL1116:
	shrq	$3, %rax
	cmpb	$0, 2147450880(%rax)
	jne	.L2433
	movl	$httpd_err400title, %eax
	movq	httpd_err400form(%rip), %r8
	shrq	$3, %rax
	cmpb	$0, 2147450880(%rax)
	jne	.L2434
	movq	httpd_err400title(%rip), %rdx
	movl	$.LC28, %r9d
	movl	$400, %esi
	movq	%r9, %rcx
	movq	%rbx, %rdi
	call	httpd_send_err
.LVL1117:
.LBB726:
.LBB727:
	.loc 1 1987 0
	movq	%r14, %rax
	shrq	$3, %rax
	cmpb	$0, 2147450880(%rax)
	je	.L1028
	movq	%r14, %rdi
	call	__asan_report_load8
.LVL1118:
.L2348:
.LBE727:
.LBE726:
	.loc 1 1621 0
	movq	%rax, %rdi
	call	__asan_report_load4
.LVL1119:
.L2434:
	.loc 1 1610 0
	movl	$httpd_err400title, %edi
	call	__asan_report_load8
.LVL1120:
.L2433:
	movl	$httpd_err400form, %edi
	call	__asan_report_load8
.LVL1121:
.L2243:
.LBE743:
.LBE789:
	.loc 1 811 0
	movq	(%rsp), %rdi
	call	tmr_run
.LVL1122:
	.loc 1 813 0
	movl	got_usr1(%rip), %eax
	testl	%eax, %eax
	je	.L987
	.loc 1 813 0 is_stmt 0 discriminator 1
	movl	terminate(%rip), %ecx
	testl	%ecx, %ecx
	jne	.L987
	.loc 1 816 0 is_stmt 1
	movq	hs(%rip), %rax
	.loc 1 815 0
	movl	$1, terminate(%rip)
	.loc 1 816 0
	testq	%rax, %rax
	je	.L987
	.loc 1 818 0
	leaq	72(%rax), %rdi
	movq	%rdi, %rdx
	shrq	$3, %rdx
	movzbl	2147450880(%rdx), %ecx
	testb	%cl, %cl
	je	.L1195
	movq	%rdi, %rdx
	andl	$7, %edx
	addl	$3, %edx
	cmpb	%cl, %dl
	jge	.L2435
.L1195:
	movl	72(%rax), %edi
	cmpl	$-1, %edi
	je	.L1196
	.loc 1 819 0
	call	fdwatch_del_fd
.LVL1123:
	movq	hs(%rip), %rax
.L1196:
	.loc 1 820 0
	leaq	76(%rax), %rdi
	movq	%rdi, %rdx
	shrq	$3, %rdx
	movzbl	2147450880(%rdx), %ecx
	testb	%cl, %cl
	je	.L1197
	movq	%rdi, %rdx
	andl	$7, %edx
	addl	$3, %edx
	cmpb	%cl, %dl
	jge	.L2436
.L1197:
	movl	76(%rax), %edi
	cmpl	$-1, %edi
	je	.L1198
	.loc 1 821 0
	call	fdwatch_del_fd
.LVL1124:
	movq	hs(%rip), %rax
.L1198:
	.loc 1 822 0
	movq	%rax, %rdi
	call	httpd_unlisten
.LVL1125:
	jmp	.L987
.L2436:
	.loc 1 820 0
	call	__asan_report_load4
.LVL1126:
.L1005:
	.loc 1 776 0
	movq	hs(%rip), %rdx
	leaq	76(%rdx), %rdi
	movq	%rdi, %rax
	shrq	$3, %rax
	movzbl	2147450880(%rax), %ecx
	testb	%cl, %cl
	je	.L1007
	movq	%rdi, %rax
	andl	$7, %eax
	addl	$3, %eax
	cmpb	%cl, %al
	jge	.L2437
.L1007:
	movl	76(%rdx), %esi
	movq	(%rsp), %rdi
	call	handle_newconnect
.LVL1127:
	testl	%eax, %eax
	jne	.L987
	jmp	.L1009
.LVL1128:
.L2244:
	.loc 1 799 0
	movq	%r14, %rdi
	call	__asan_report_load8
.LVL1129:
.L2246:
	.loc 1 804 0
	movq	%r15, %rdi
	call	__asan_report_load4
.LVL1130:
.L2245:
	.loc 1 800 0
	call	__asan_report_load4
.LVL1131:
.L2435:
	.loc 1 818 0
	call	__asan_report_load4
.LVL1132:
.L2431:
.LBB790:
.LBB653:
.LBB645:
.LBB567:
.LBB504:
.LBB501:
	call	__asan_handle_no_return
.LVL1133:
	movq	%rbx, %rdi
	call	value_required.part.2
.LVL1134:
.L723:
.LBE501:
.LBE504:
	.loc 1 1121 0
	movl	$.LC68, %esi
	movq	%rbx, %rdi
	call	strcasecmp
.LVL1135:
	testl	%eax, %eax
	jne	.L725
.LVL1136:
.LBB505:
.LBB506:
	.loc 1 1196 0
	testq	%rbp, %rbp
	je	.L2438
.LVL1137:
.LBE506:
.LBE505:
.LBB508:
.LBB509:
	.loc 1 1223 0
	movq	%rbp, %rdi
	call	__strdup
.LVL1138:
	.loc 1 1224 0
	testq	%rax, %rax
	je	.L706
.LBE509:
.LBE508:
	.loc 1 1124 0
	movq	%rax, throttlefile(%rip)
	jmp	.L694
.LVL1139:
.L2241:
.LBE567:
.LBE645:
.LBE653:
.LBE790:
	.loc 1 783 0
	call	__asan_report_load4
.LVL1140:
.L2437:
	.loc 1 776 0
	call	__asan_report_load4
.LVL1141:
.L2438:
.LBB791:
.LBB654:
.LBB646:
.LBB568:
.LBB510:
.LBB507:
	call	__asan_handle_no_return
.LVL1142:
	movq	%rbx, %rdi
	call	value_required.part.2
.LVL1143:
.L725:
.LBE507:
.LBE510:
	.loc 1 1126 0
	movl	$.LC69, %esi
	movq	%rbx, %rdi
	call	strcasecmp
.LVL1144:
	testl	%eax, %eax
	jne	.L727
.LVL1145:
.LBB511:
.LBB512:
	.loc 1 1196 0
	testq	%rbp, %rbp
	je	.L2439
.LVL1146:
.LBE512:
.LBE511:
.LBB514:
.LBB515:
	.loc 1 1223 0
	movq	%rbp, %rdi
	call	__strdup
.LVL1147:
	.loc 1 1224 0
	testq	%rax, %rax
	je	.L706
.LBE515:
.LBE514:
	.loc 1 1129 0
	movq	%rax, hostname(%rip)
	jmp	.L694
.LVL1148:
.L2333:
.LBE568:
.LBE646:
.LBE654:
.LBE791:
.LBB792:
.LBB744:
	.loc 1 1678 0
	call	__asan_report_load8
.LVL1149:
.L2332:
	.loc 1 1670 0
	movq	%rbp, %rdi
	call	__asan_report_store8
.LVL1150:
.L2316:
.LBB728:
.LBB712:
	.loc 1 1891 0
	call	__asan_report_load8
.LVL1151:
.L2326:
	.loc 1 1889 0
	movq	%r12, %rdi
	call	__asan_report_load4
.LVL1152:
.L2312:
	.loc 1 1888 0
	movq	24(%rsp), %rdi
	call	__asan_report_store8
.LVL1153:
.L2320:
	.loc 1 1899 0
	movq	%rbp, %rdi
	call	__asan_report_load4
.LVL1154:
.L2310:
.LBE712:
.LBE728:
.LBB729:
.LBB730:
	.loc 1 1987 0
	movq	%r14, %rax
	shrq	$3, %rax
	cmpb	$0, 2147450880(%rax)
	je	.L1028
	movq	%r14, %rdi
	call	__asan_report_load8
.LVL1155:
.L2311:
.LBE730:
.LBE729:
.LBB731:
.LBB713:
	.loc 1 1887 0
	movq	%r12, %rdi
	call	__asan_report_store4
.LVL1156:
.L2307:
.LBE713:
.LBE731:
	.loc 1 1629 0
	call	__asan_report_store8
.LVL1157:
.L2306:
	.loc 1 1628 0
	movq	%rbp, %rdi
	call	__asan_report_load8
.LVL1158:
.L1064:
.LBB732:
.LBB714:
	.loc 1 1901 0
	xorl	%eax, %eax
	movl	$.LC133, %esi
	movl	$3, %edi
	call	syslog
.LVL1159:
	.loc 1 1902 0
	movq	%rbx, %rcx
	addq	throttles(%rip), %rcx
	leaq	40(%rcx), %rbp
	movq	%rbp, %rax
	shrq	$3, %rax
	movzbl	2147450880(%rax), %edx
	testb	%dl, %dl
	je	.L1066
	movq	%rbp, %rax
	andl	$7, %eax
	addl	$3, %eax
	cmpb	%dl, %al
	jge	.L2440
.L1066:
	leaq	8(%rcx), %rdi
	movl	$0, 40(%rcx)
	movq	%rdi, %rax
	shrq	$3, %rax
	cmpb	$0, 2147450880(%rax)
	jne	.L2441
	leaq	16(%rcx), %rdi
	movq	8(%rcx), %rax
	movq	%rdi, %rdx
	shrq	$3, %rdx
	cmpb	$0, 2147450880(%rdx)
	jne	.L2442
	movq	16(%rcx), %rsi
	movl	$1, %edx
	movl	$1, %r9d
	jmp	.L1065
.LVL1160:
.L2325:
	.loc 1 1912 0
	movq	24(%rsp), %rdi
	call	__asan_report_load8
.LVL1161:
.L2324:
	.loc 1 1907 0
	movq	32(%rsp), %rdi
	call	__asan_report_load8
.LVL1162:
.L2322:
	.loc 1 1904 0
	call	__asan_report_store4
.LVL1163:
.L2323:
	.loc 1 1905 0
	movq	%rbp, %rdi
	call	__asan_report_store4
.LVL1164:
.L2321:
	.loc 1 1904 0
	movq	%r12, %rdi
	call	__asan_report_load4
.LVL1165:
.L2440:
	.loc 1 1902 0
	movq	%rbp, %rdi
	call	__asan_report_store4
.LVL1166:
.L2315:
	.loc 1 1891 0
	call	__asan_report_load8
.LVL1167:
.L2314:
	movq	%r14, %rdi
	call	__asan_report_load8
.LVL1168:
.L2442:
	call	__asan_report_load8
.LVL1169:
.L2441:
	call	__asan_report_load8
.LVL1170:
.L2335:
.LBE714:
.LBE732:
	.loc 1 1688 0
	call	__asan_report_load8
.LVL1171:
.L2334:
.LBB733:
	.loc 1 1682 0
	movq	%r12, %rax
	shrq	$3, %rax
	movzbl	2147450880(%rax), %edx
	testb	%dl, %dl
	je	.L1095
	movq	%r12, %rax
	andl	$7, %eax
	addl	$3, %eax
	cmpb	%dl, %al
	jge	.L2443
.L1095:
	movl	56(%r15), %edx
	testl	%edx, %edx
	jle	.L2444
	.loc 1 1683 0
	leaq	200(%rbx), %rcx
	subl	$1, %edx
	movq	throttles(%rip), %r8
	leaq	16(%r15), %rax
	leaq	20(%r15,%rdx,4), %r10
	movq	%rcx, %r9
	shrq	$3, %r9
.LVL1172:
.L1103:
	movq	%rax, %rdx
	shrq	$3, %rdx
	movzbl	2147450880(%rdx), %esi
	testb	%sil, %sil
	je	.L1100
	movq	%rax, %rdx
	andl	$7, %edx
	addl	$3, %edx
	cmpb	%sil, %dl
	jge	.L2445
.L1100:
	movslq	(%rax), %rdx
	leaq	(%rdx,%rdx,2), %rdx
	salq	$4, %rdx
	addq	%r8, %rdx
	leaq	32(%rdx), %rdi
	movq	%rdi, %rsi
	shrq	$3, %rsi
	cmpb	$0, 2147450880(%rsi)
	jne	.L2446
	cmpb	$0, 2147450880(%r9)
	movq	32(%rdx), %rsi
	movq	%rcx, %rdi
	jne	.L2447
	addq	200(%rbx), %rsi
	addq	$4, %rax
	.loc 1 1682 0
	cmpq	%r10, %rax
	.loc 1 1683 0
	movq	%rsi, 32(%rdx)
	.loc 1 1682 0
	jne	.L1103
	jmp	.L1104
.LVL1173:
.L2444:
	leaq	200(%rbx), %rdi
.LVL1174:
.L1104:
	.loc 1 1684 0
	movq	%rdi, %rax
	shrq	$3, %rax
	cmpb	$0, 2147450880(%rax)
	jne	.L2448
	leaq	136(%r15), %rdi
	movq	200(%rbx), %rax
	movq	%rdi, %rdx
	shrq	$3, %rdx
	cmpb	$0, 2147450880(%rdx)
	jne	.L2449
	movq	%rax, 136(%r15)
.LVL1175:
.LBB734:
.LBB735:
	.loc 1 1987 0
	movq	%r14, %rax
	shrq	$3, %rax
	cmpb	$0, 2147450880(%rax)
	je	.L1028
	movq	%r14, %rdi
	call	__asan_report_load8
.LVL1176:
.L2447:
.LBE735:
.LBE734:
	.loc 1 1683 0
	call	__asan_report_load8
.LVL1177:
.L2446:
	call	__asan_report_load8
.LVL1178:
.L2449:
	.loc 1 1684 0
	call	__asan_report_store8
.LVL1179:
.L2448:
	call	__asan_report_load8
.LVL1180:
.L2329:
.LBE733:
	.loc 1 1669 0
	call	__asan_report_load8
.LVL1181:
.L1083:
	.loc 1 1672 0
	leaq	192(%rbx), %rdi
	movq	%rdi, %rax
	shrq	$3, %rax
	cmpb	$0, 2147450880(%rax)
	jne	.L2450
	movq	192(%rbx), %rax
	.loc 1 1673 0
	leaq	128(%r15), %rbp
	.loc 1 1672 0
	testq	%rax, %rax
	js	.L2451
	.loc 1 1675 0
	movq	%rbp, %rdx
	shrq	$3, %rdx
	cmpb	$0, 2147450880(%rdx)
	je	.L1092
	movq	%rbp, %rdi
	call	__asan_report_store8
.LVL1182:
.L2313:
.LBB736:
.LBB715:
	.loc 1 1888 0
	movq	32(%rsp), %rdi
	call	__asan_report_store8
.LVL1183:
.L2328:
.LBE715:
.LBE736:
	.loc 1 1667 0
	call	__asan_report_load4
.LVL1184:
.L2451:
	.loc 1 1673 0
	movq	%rbp, %rax
	shrq	$3, %rax
	cmpb	$0, 2147450880(%rax)
	jne	.L2452
	movq	$0, 128(%r15)
	jmp	.L1088
.L2450:
	.loc 1 1672 0
	call	__asan_report_load8
.LVL1185:
.L2452:
	.loc 1 1673 0
	movq	%rbp, %rdi
	call	__asan_report_store8
.LVL1186:
.L2331:
	.loc 1 1670 0
	call	__asan_report_load8
.LVL1187:
.L2330:
	.loc 1 1669 0
	call	__asan_report_store8
.LVL1188:
.L2439:
.LBE744:
.LBE792:
.LBB793:
.LBB655:
.LBB647:
.LBB569:
.LBB516:
.LBB513:
	call	__asan_handle_no_return
.LVL1189:
	movq	%rbx, %rdi
	call	value_required.part.2
.LVL1190:
.L727:
.LBE513:
.LBE516:
	.loc 1 1131 0
	movl	$.LC70, %esi
	movq	%rbx, %rdi
	call	strcasecmp
.LVL1191:
	testl	%eax, %eax
	jne	.L729
.LVL1192:
.LBB517:
.LBB518:
	.loc 1 1196 0
	testq	%rbp, %rbp
	je	.L2453
.LVL1193:
.LBE518:
.LBE517:
.LBB520:
.LBB521:
	.loc 1 1223 0
	movq	%rbp, %rdi
	call	__strdup
.LVL1194:
	.loc 1 1224 0
	testq	%rax, %rax
	je	.L706
.LBE521:
.LBE520:
	.loc 1 1134 0
	movq	%rax, logfile(%rip)
	jmp	.L694
.LVL1195:
.L2338:
.LBE569:
.LBE647:
.LBE655:
.LBE793:
.LBB794:
.LBB745:
	.loc 1 1697 0
	call	__asan_report_store8
.LVL1196:
.L2340:
	.loc 1 1701 0
	movq	%r13, %rdi
	call	__asan_report_load4
.LVL1197:
.L2336:
	.loc 1 1688 0
	movq	%rbp, %rdi
	call	__asan_report_load8
.LVL1198:
.L2337:
	.loc 1 1696 0
	movq	%r15, %rdi
	call	__asan_report_store4
.LVL1199:
.L2443:
.LBB737:
	.loc 1 1682 0
	movq	%r12, %rdi
	call	__asan_report_load4
.LVL1200:
.L2445:
	.loc 1 1683 0
	movq	%rax, %rdi
	call	__asan_report_load4
.LVL1201:
.L2339:
.LBE737:
	.loc 1 1698 0
	call	__asan_report_store8
.LVL1202:
.L2341:
	.loc 1 1702 0
	movq	%r13, %rdi
	call	__asan_report_load4
.LVL1203:
.L2453:
.LBE745:
.LBE794:
.LBB795:
.LBB656:
.LBB648:
.LBB570:
.LBB522:
.LBB519:
	call	__asan_handle_no_return
.LVL1204:
	movq	%rbx, %rdi
	call	value_required.part.2
.LVL1205:
.L729:
.LBE519:
.LBE522:
	.loc 1 1136 0
	movl	$.LC71, %esi
	movq	%rbx, %rdi
	call	strcasecmp
.LVL1206:
	testl	%eax, %eax
	jne	.L731
.LVL1207:
.LBB523:
.LBB524:
	.loc 1 1208 0
	testq	%rbp, %rbp
	jne	.L2454
.LBE524:
.LBE523:
	.loc 1 1139 0
	movl	$1, do_vhost(%rip)
	jmp	.L694
.L731:
	.loc 1 1141 0
	movl	$.LC72, %esi
	movq	%rbx, %rdi
	call	strcasecmp
.LVL1208:
	testl	%eax, %eax
	jne	.L733
.LVL1209:
.LBB526:
.LBB527:
	.loc 1 1208 0
	testq	%rbp, %rbp
	jne	.L2455
.LBE527:
.LBE526:
	.loc 1 1144 0
	movl	$0, do_vhost(%rip)
	jmp	.L694
.L2454:
.LBB529:
.LBB525:
	call	__asan_handle_no_return
.LVL1210:
	movq	%rbx, %rdi
	call	no_value_required.part.1
.LVL1211:
.L2455:
.LBE525:
.LBE529:
.LBB530:
.LBB528:
	call	__asan_handle_no_return
.LVL1212:
	movq	%rbx, %rdi
	call	no_value_required.part.1
.LVL1213:
.L733:
.LBE528:
.LBE530:
	.loc 1 1146 0
	movl	$.LC73, %esi
	movq	%rbx, %rdi
	call	strcasecmp
.LVL1214:
	testl	%eax, %eax
	jne	.L735
.LVL1215:
.LBB531:
.LBB532:
	.loc 1 1208 0
	testq	%rbp, %rbp
	jne	.L2456
.LBE532:
.LBE531:
	.loc 1 1149 0
	movl	$1, do_global_passwd(%rip)
	jmp	.L694
.L735:
	.loc 1 1151 0
	movl	$.LC74, %esi
	movq	%rbx, %rdi
	call	strcasecmp
.LVL1216:
	testl	%eax, %eax
	jne	.L737
.LVL1217:
.LBB534:
.LBB535:
	.loc 1 1208 0
	testq	%rbp, %rbp
	jne	.L2457
.LBE535:
.LBE534:
	.loc 1 1154 0
	movl	$0, do_global_passwd(%rip)
	jmp	.L694
.L2456:
.LBB537:
.LBB533:
	call	__asan_handle_no_return
.LVL1218:
	movq	%rbx, %rdi
	call	no_value_required.part.1
.LVL1219:
.L2457:
.LBE533:
.LBE537:
.LBB538:
.LBB536:
	call	__asan_handle_no_return
.LVL1220:
	movq	%rbx, %rdi
	call	no_value_required.part.1
.LVL1221:
.L737:
.LBE536:
.LBE538:
	.loc 1 1156 0
	movl	$.LC75, %esi
	movq	%rbx, %rdi
	call	strcasecmp
.LVL1222:
	testl	%eax, %eax
	jne	.L739
.LVL1223:
.LBB539:
.LBB540:
	.loc 1 1196 0
	testq	%rbp, %rbp
	je	.L2458
.LVL1224:
.LBE540:
.LBE539:
.LBB542:
.LBB543:
	.loc 1 1223 0
	movq	%rbp, %rdi
	call	__strdup
.LVL1225:
	.loc 1 1224 0
	testq	%rax, %rax
	je	.L706
.LBE543:
.LBE542:
	.loc 1 1159 0
	movq	%rax, pidfile(%rip)
	jmp	.L694
.LVL1226:
.L739:
	.loc 1 1161 0
	movl	$.LC76, %esi
	movq	%rbx, %rdi
	call	strcasecmp
.LVL1227:
	testl	%eax, %eax
	jne	.L741
.LVL1228:
.LBB544:
.LBB545:
	.loc 1 1196 0
	testq	%rbp, %rbp
	je	.L2459
.LVL1229:
.LBE545:
.LBE544:
.LBB547:
.LBB548:
	.loc 1 1223 0
	movq	%rbp, %rdi
	call	__strdup
.LVL1230:
	.loc 1 1224 0
	testq	%rax, %rax
	je	.L706
.LBE548:
.LBE547:
	.loc 1 1164 0
	movq	%rax, charset(%rip)
	jmp	.L694
.LVL1231:
.L2458:
.LBB549:
.LBB541:
	call	__asan_handle_no_return
.LVL1232:
	movq	%rbx, %rdi
	call	value_required.part.2
.LVL1233:
.L2459:
.LBE541:
.LBE549:
.LBB550:
.LBB546:
	call	__asan_handle_no_return
.LVL1234:
	movq	%rbx, %rdi
	call	value_required.part.2
.LVL1235:
.L741:
.LBE546:
.LBE550:
	.loc 1 1166 0
	movl	$.LC77, %esi
	movq	%rbx, %rdi
	call	strcasecmp
.LVL1236:
	testl	%eax, %eax
	jne	.L743
.LVL1237:
.LBB551:
.LBB552:
	.loc 1 1196 0
	testq	%rbp, %rbp
	je	.L2460
.LVL1238:
.LBE552:
.LBE551:
.LBB554:
.LBB555:
	.loc 1 1223 0
	movq	%rbp, %rdi
	call	__strdup
.LVL1239:
	.loc 1 1224 0
	testq	%rax, %rax
	je	.L706
.LBE555:
.LBE554:
	.loc 1 1169 0
	movq	%rax, p3p(%rip)
	jmp	.L694
.LVL1240:
.L743:
	.loc 1 1171 0
	movl	$.LC78, %esi
	movq	%rbx, %rdi
	call	strcasecmp
.LVL1241:
	testl	%eax, %eax
	jne	.L745
.LVL1242:
.LBB556:
.LBB557:
	.loc 1 1196 0
	testq	%rbp, %rbp
	je	.L2461
.LVL1243:
.LBE557:
.LBE556:
.LBB559:
.LBB560:
	.loc 2 286 0
	movl	$10, %edx
	xorl	%esi, %esi
	movq	%rbp, %rdi
	call	strtol
.LVL1244:
	movl	%eax, max_age(%rip)
	jmp	.L694
.L2460:
.LBE560:
.LBE559:
.LBB561:
.LBB553:
	call	__asan_handle_no_return
.LVL1245:
	movq	%rbx, %rdi
	call	value_required.part.2
.LVL1246:
.L2461:
.LBE553:
.LBE561:
.LBB562:
.LBB558:
	call	__asan_handle_no_return
.LVL1247:
	movq	%rbx, %rdi
	call	value_required.part.2
.LVL1248:
.L745:
.LBE558:
.LBE562:
	.loc 1 1178 0
	movl	$stderr, %eax
	movq	argv0(%rip), %rdx
	shrq	$3, %rax
	cmpb	$0, 2147450880(%rax)
	jne	.L2462
	movq	stderr(%rip), %rdi
	movq	%rbx, %rcx
	movl	$.LC79, %esi
	xorl	%eax, %eax
	call	fprintf
.LVL1249:
	.loc 1 1180 0
	call	__asan_handle_no_return
.LVL1250:
	movl	$1, %edi
	call	exit
.LVL1251:
.L2462:
	.loc 1 1178 0
	movl	$stderr, %edi
	call	__asan_report_load8
.LVL1252:
.LBE570:
.LBE648:
.LBE656:
.LBE795:
	.cfi_endproc
.LFE47:
	.size	main, .-main
	.section	.text.unlikely
.LCOLDE137:
	.section	.text.startup
.LHOTE137:
	.bss
	.align 32
	.type	watchdog_flag, @object
	.size	watchdog_flag, 4
watchdog_flag:
	.zero	64
	.align 32
	.type	got_usr1, @object
	.size	got_usr1, 4
got_usr1:
	.zero	64
	.align 32
	.type	got_hup, @object
	.size	got_hup, 4
got_hup:
	.zero	64
	.comm	stats_simultaneous,4,4
	.comm	stats_bytes,8,8
	.comm	stats_connections,8,8
	.comm	stats_time,8,8
	.comm	start_time,8,8
	.globl	terminate
	.align 32
	.type	terminate, @object
	.size	terminate, 4
terminate:
	.zero	64
	.align 32
	.type	hs, @object
	.size	hs, 8
hs:
	.zero	64
	.align 32
	.type	httpd_conn_count, @object
	.size	httpd_conn_count, 4
httpd_conn_count:
	.zero	64
	.align 32
	.type	first_free_connect, @object
	.size	first_free_connect, 4
first_free_connect:
	.zero	64
	.align 32
	.type	max_connects, @object
	.size	max_connects, 4
max_connects:
	.zero	64
	.align 32
	.type	num_connects, @object
	.size	num_connects, 4
num_connects:
	.zero	64
	.align 32
	.type	connects, @object
	.size	connects, 8
connects:
	.zero	64
	.align 32
	.type	maxthrottles, @object
	.size	maxthrottles, 4
maxthrottles:
	.zero	64
	.align 32
	.type	numthrottles, @object
	.size	numthrottles, 4
numthrottles:
	.zero	64
	.align 32
	.type	throttles, @object
	.size	throttles, 8
throttles:
	.zero	64
	.align 32
	.type	max_age, @object
	.size	max_age, 4
max_age:
	.zero	64
	.align 32
	.type	p3p, @object
	.size	p3p, 8
p3p:
	.zero	64
	.align 32
	.type	charset, @object
	.size	charset, 8
charset:
	.zero	64
	.align 32
	.type	user, @object
	.size	user, 8
user:
	.zero	64
	.align 32
	.type	pidfile, @object
	.size	pidfile, 8
pidfile:
	.zero	64
	.align 32
	.type	hostname, @object
	.size	hostname, 8
hostname:
	.zero	64
	.align 32
	.type	throttlefile, @object
	.size	throttlefile, 8
throttlefile:
	.zero	64
	.align 32
	.type	logfile, @object
	.size	logfile, 8
logfile:
	.zero	64
	.align 32
	.type	local_pattern, @object
	.size	local_pattern, 8
local_pattern:
	.zero	64
	.align 32
	.type	no_empty_referers, @object
	.size	no_empty_referers, 4
no_empty_referers:
	.zero	64
	.align 32
	.type	url_pattern, @object
	.size	url_pattern, 8
url_pattern:
	.zero	64
	.align 32
	.type	cgi_limit, @object
	.size	cgi_limit, 4
cgi_limit:
	.zero	64
	.align 32
	.type	cgi_pattern, @object
	.size	cgi_pattern, 8
cgi_pattern:
	.zero	64
	.align 32
	.type	do_global_passwd, @object
	.size	do_global_passwd, 4
do_global_passwd:
	.zero	64
	.align 32
	.type	do_vhost, @object
	.size	do_vhost, 4
do_vhost:
	.zero	64
	.align 32
	.type	no_symlink_check, @object
	.size	no_symlink_check, 4
no_symlink_check:
	.zero	64
	.align 32
	.type	no_log, @object
	.size	no_log, 4
no_log:
	.zero	64
	.align 32
	.type	do_chroot, @object
	.size	do_chroot, 4
do_chroot:
	.zero	64
	.align 32
	.type	data_dir, @object
	.size	data_dir, 8
data_dir:
	.zero	64
	.align 32
	.type	dir, @object
	.size	dir, 8
dir:
	.zero	64
	.align 32
	.type	port, @object
	.size	port, 2
port:
	.zero	64
	.align 32
	.type	debug, @object
	.size	debug, 4
debug:
	.zero	64
	.align 32
	.type	argv0, @object
	.size	argv0, 8
argv0:
	.zero	64
	.section	.rodata.str1.1
.LC138:
	.string	"watchdog_flag"
.LC139:
	.string	"thttpd.c"
.LC140:
	.string	"got_usr1"
.LC141:
	.string	"got_hup"
.LC142:
	.string	"terminate"
.LC143:
	.string	"hs"
.LC144:
	.string	"httpd_conn_count"
.LC145:
	.string	"first_free_connect"
.LC146:
	.string	"max_connects"
.LC147:
	.string	"num_connects"
.LC148:
	.string	"connects"
.LC149:
	.string	"maxthrottles"
.LC150:
	.string	"numthrottles"
.LC151:
	.string	"hostname"
.LC152:
	.string	"throttlefile"
.LC153:
	.string	"local_pattern"
.LC154:
	.string	"no_empty_referers"
.LC155:
	.string	"url_pattern"
.LC156:
	.string	"cgi_limit"
.LC157:
	.string	"cgi_pattern"
.LC158:
	.string	"do_global_passwd"
.LC159:
	.string	"do_vhost"
.LC160:
	.string	"no_symlink_check"
.LC161:
	.string	"no_log"
.LC162:
	.string	"do_chroot"
.LC163:
	.string	"argv0"
.LC164:
	.string	"*.LC52"
.LC165:
	.string	"*.LC61"
.LC166:
	.string	"*.LC5"
.LC167:
	.string	"*.LC21"
.LC168:
	.string	"*.LC126"
.LC169:
	.string	"*.LC127"
.LC170:
	.string	"*.LC63"
.LC171:
	.string	"*.LC101"
.LC172:
	.string	"*.LC106"
.LC173:
	.string	"*.LC39"
.LC174:
	.string	"*.LC17"
.LC175:
	.string	"*.LC118"
.LC176:
	.string	"*.LC115"
.LC177:
	.string	"*.LC55"
.LC178:
	.string	"*.LC121"
.LC179:
	.string	"*.LC20"
.LC180:
	.string	"*.LC29"
.LC181:
	.string	"*.LC81"
.LC182:
	.string	"*.LC67"
.LC183:
	.string	"*.LC33"
.LC184:
	.string	"*.LC51"
.LC185:
	.string	"*.LC75"
.LC186:
	.string	"*.LC77"
.LC187:
	.string	"*.LC120"
.LC188:
	.string	"*.LC96"
.LC189:
	.string	"*.LC53"
.LC190:
	.string	"*.LC60"
.LC191:
	.string	"*.LC98"
.LC192:
	.string	"*.LC107"
.LC193:
	.string	"*.LC134"
.LC194:
	.string	"*.LC122"
.LC195:
	.string	"*.LC87"
.LC196:
	.string	"*.LC124"
.LC197:
	.string	"*.LC103"
.LC198:
	.string	"*.LC41"
.LC199:
	.string	"*.LC135"
.LC200:
	.string	"*.LC47"
.LC201:
	.string	"*.LC74"
.LC202:
	.string	"*.LC35"
.LC203:
	.string	"*.LC91"
.LC204:
	.string	"*.LC10"
.LC205:
	.string	"*.LC132"
.LC206:
	.string	"*.LC76"
.LC207:
	.string	"*.LC37"
.LC208:
	.string	"*.LC130"
.LC209:
	.string	"*.LC70"
.LC210:
	.string	"*.LC117"
.LC211:
	.string	"*.LC102"
.LC212:
	.string	"*.LC114"
.LC213:
	.string	"*.LC2"
.LC214:
	.string	"*.LC28"
.LC215:
	.string	"*.LC99"
.LC216:
	.string	"*.LC56"
.LC217:
	.string	"*.LC112"
.LC218:
	.string	"*.LC49"
.LC219:
	.string	"*.LC59"
.LC220:
	.string	"*.LC93"
.LC221:
	.string	"*.LC82"
.LC222:
	.string	"*.LC25"
.LC223:
	.string	"*.LC100"
.LC224:
	.string	"*.LC136"
.LC225:
	.string	"*.LC3"
.LC226:
	.string	"*.LC128"
.LC227:
	.string	"*.LC125"
.LC228:
	.string	"*.LC68"
.LC229:
	.string	"*.LC109"
.LC230:
	.string	"*.LC73"
.LC231:
	.string	"*.LC133"
.LC232:
	.string	"*.LC50"
.LC233:
	.string	"*.LC54"
.LC234:
	.string	"*.LC113"
.LC235:
	.string	"*.LC116"
.LC236:
	.string	"*.LC57"
.LC237:
	.string	"*.LC84"
.LC238:
	.string	"*.LC71"
.LC239:
	.string	"*.LC58"
.LC240:
	.string	"*.LC90"
.LC241:
	.string	"*.LC11"
.LC242:
	.string	"*.LC111"
.LC243:
	.string	"*.LC42"
.LC244:
	.string	"*.LC89"
.LC245:
	.string	"*.LC123"
.LC246:
	.string	"*.LC104"
.LC247:
	.string	"*.LC80"
.LC248:
	.string	"*.LC131"
.LC249:
	.string	"*.LC78"
.LC250:
	.string	"*.LC85"
.LC251:
	.string	"*.LC72"
.LC252:
	.string	"*.LC69"
.LC253:
	.string	"*.LC110"
.LC254:
	.string	"*.LC94"
.LC255:
	.string	"*.LC129"
.LC256:
	.string	"*.LC48"
.LC257:
	.string	"*.LC24"
.LC258:
	.string	"*.LC19"
.LC259:
	.string	"*.LC95"
.LC260:
	.string	"*.LC97"
.LC261:
	.string	"*.LC65"
.LC262:
	.string	"*.LC44"
.LC263:
	.string	"*.LC86"
.LC264:
	.string	"*.LC83"
.LC265:
	.string	"*.LC27"
.LC266:
	.string	"*.LC92"
.LC267:
	.string	"*.LC1"
.LC268:
	.string	"*.LC66"
.LC269:
	.string	"*.LC105"
.LC270:
	.string	"*.LC62"
.LC271:
	.string	"*.LC79"
.LC272:
	.string	"*.LC108"
.LC273:
	.string	"*.LC119"
.LC274:
	.string	"*.LC88"
.LC275:
	.string	"*.LC64"
	.data
	.align 64
	.type	.LASAN0, @object
	.size	.LASAN0, 7104
.LASAN0:
	.quad	watchdog_flag
	.quad	4
	.quad	64
	.quad	.LC138
	.quad	.LC139
	.quad	0
	.quad	got_usr1
	.quad	4
	.quad	64
	.quad	.LC140
	.quad	.LC139
	.quad	0
	.quad	got_hup
	.quad	4
	.quad	64
	.quad	.LC141
	.quad	.LC139
	.quad	0
	.quad	terminate
	.quad	4
	.quad	64
	.quad	.LC142
	.quad	.LC139
	.quad	0
	.quad	hs
	.quad	8
	.quad	64
	.quad	.LC143
	.quad	.LC139
	.quad	0
	.quad	httpd_conn_count
	.quad	4
	.quad	64
	.quad	.LC144
	.quad	.LC139
	.quad	0
	.quad	first_free_connect
	.quad	4
	.quad	64
	.quad	.LC145
	.quad	.LC139
	.quad	0
	.quad	max_connects
	.quad	4
	.quad	64
	.quad	.LC146
	.quad	.LC139
	.quad	0
	.quad	num_connects
	.quad	4
	.quad	64
	.quad	.LC147
	.quad	.LC139
	.quad	0
	.quad	connects
	.quad	8
	.quad	64
	.quad	.LC148
	.quad	.LC139
	.quad	0
	.quad	maxthrottles
	.quad	4
	.quad	64
	.quad	.LC149
	.quad	.LC139
	.quad	0
	.quad	numthrottles
	.quad	4
	.quad	64
	.quad	.LC150
	.quad	.LC139
	.quad	0
	.quad	throttles
	.quad	8
	.quad	64
	.quad	.LC68
	.quad	.LC139
	.quad	0
	.quad	max_age
	.quad	4
	.quad	64
	.quad	.LC78
	.quad	.LC139
	.quad	0
	.quad	p3p
	.quad	8
	.quad	64
	.quad	.LC77
	.quad	.LC139
	.quad	0
	.quad	charset
	.quad	8
	.quad	64
	.quad	.LC76
	.quad	.LC139
	.quad	0
	.quad	user
	.quad	8
	.quad	64
	.quad	.LC62
	.quad	.LC139
	.quad	0
	.quad	pidfile
	.quad	8
	.quad	64
	.quad	.LC75
	.quad	.LC139
	.quad	0
	.quad	hostname
	.quad	8
	.quad	64
	.quad	.LC151
	.quad	.LC139
	.quad	0
	.quad	throttlefile
	.quad	8
	.quad	64
	.quad	.LC152
	.quad	.LC139
	.quad	0
	.quad	logfile
	.quad	8
	.quad	64
	.quad	.LC70
	.quad	.LC139
	.quad	0
	.quad	local_pattern
	.quad	8
	.quad	64
	.quad	.LC153
	.quad	.LC139
	.quad	0
	.quad	no_empty_referers
	.quad	4
	.quad	64
	.quad	.LC154
	.quad	.LC139
	.quad	0
	.quad	url_pattern
	.quad	8
	.quad	64
	.quad	.LC155
	.quad	.LC139
	.quad	0
	.quad	cgi_limit
	.quad	4
	.quad	64
	.quad	.LC156
	.quad	.LC139
	.quad	0
	.quad	cgi_pattern
	.quad	8
	.quad	64
	.quad	.LC157
	.quad	.LC139
	.quad	0
	.quad	do_global_passwd
	.quad	4
	.quad	64
	.quad	.LC158
	.quad	.LC139
	.quad	0
	.quad	do_vhost
	.quad	4
	.quad	64
	.quad	.LC159
	.quad	.LC139
	.quad	0
	.quad	no_symlink_check
	.quad	4
	.quad	64
	.quad	.LC160
	.quad	.LC139
	.quad	0
	.quad	no_log
	.quad	4
	.quad	64
	.quad	.LC161
	.quad	.LC139
	.quad	0
	.quad	do_chroot
	.quad	4
	.quad	64
	.quad	.LC162
	.quad	.LC139
	.quad	0
	.quad	data_dir
	.quad	8
	.quad	64
	.quad	.LC57
	.quad	.LC139
	.quad	0
	.quad	dir
	.quad	8
	.quad	64
	.quad	.LC54
	.quad	.LC139
	.quad	0
	.quad	port
	.quad	2
	.quad	64
	.quad	.LC53
	.quad	.LC139
	.quad	0
	.quad	debug
	.quad	4
	.quad	64
	.quad	.LC52
	.quad	.LC139
	.quad	0
	.quad	argv0
	.quad	8
	.quad	64
	.quad	.LC163
	.quad	.LC139
	.quad	0
	.quad	.LC52
	.quad	6
	.quad	64
	.quad	.LC164
	.quad	.LC139
	.quad	0
	.quad	.LC61
	.quad	11
	.quad	64
	.quad	.LC165
	.quad	.LC139
	.quad	0
	.quad	.LC5
	.quad	219
	.quad	256
	.quad	.LC166
	.quad	.LC139
	.quad	0
	.quad	.LC21
	.quad	39
	.quad	96
	.quad	.LC167
	.quad	.LC139
	.quad	0
	.quad	.LC126
	.quad	16
	.quad	64
	.quad	.LC168
	.quad	.LC139
	.quad	0
	.quad	.LC127
	.quad	12
	.quad	64
	.quad	.LC169
	.quad	.LC139
	.quad	0
	.quad	.LC63
	.quad	7
	.quad	64
	.quad	.LC170
	.quad	.LC139
	.quad	0
	.quad	.LC101
	.quad	2
	.quad	64
	.quad	.LC171
	.quad	.LC139
	.quad	0
	.quad	.LC106
	.quad	11
	.quad	64
	.quad	.LC172
	.quad	.LC139
	.quad	0
	.quad	.LC39
	.quad	5
	.quad	64
	.quad	.LC173
	.quad	.LC139
	.quad	0
	.quad	.LC17
	.quad	16
	.quad	64
	.quad	.LC174
	.quad	.LC139
	.quad	0
	.quad	.LC118
	.quad	20
	.quad	64
	.quad	.LC175
	.quad	.LC139
	.quad	0
	.quad	.LC115
	.quad	79
	.quad	128
	.quad	.LC176
	.quad	.LC139
	.quad	0
	.quad	.LC55
	.quad	7
	.quad	64
	.quad	.LC177
	.quad	.LC139
	.quad	0
	.quad	.LC121
	.quad	24
	.quad	64
	.quad	.LC178
	.quad	.LC139
	.quad	0
	.quad	.LC20
	.quad	36
	.quad	96
	.quad	.LC179
	.quad	.LC139
	.quad	0
	.quad	.LC29
	.quad	35
	.quad	96
	.quad	.LC180
	.quad	.LC139
	.quad	0
	.quad	.LC81
	.quad	5
	.quad	64
	.quad	.LC181
	.quad	.LC139
	.quad	0
	.quad	.LC67
	.quad	9
	.quad	64
	.quad	.LC182
	.quad	.LC139
	.quad	0
	.quad	.LC33
	.quad	25
	.quad	64
	.quad	.LC183
	.quad	.LC139
	.quad	0
	.quad	.LC51
	.quad	5
	.quad	64
	.quad	.LC184
	.quad	.LC139
	.quad	0
	.quad	.LC75
	.quad	8
	.quad	64
	.quad	.LC185
	.quad	.LC139
	.quad	0
	.quad	.LC77
	.quad	4
	.quad	64
	.quad	.LC186
	.quad	.LC139
	.quad	0
	.quad	.LC120
	.quad	30
	.quad	64
	.quad	.LC187
	.quad	.LC139
	.quad	0
	.quad	.LC96
	.quad	39
	.quad	96
	.quad	.LC188
	.quad	.LC139
	.quad	0
	.quad	.LC53
	.quad	5
	.quad	64
	.quad	.LC189
	.quad	.LC139
	.quad	0
	.quad	.LC60
	.quad	9
	.quad	64
	.quad	.LC190
	.quad	.LC139
	.quad	0
	.quad	.LC98
	.quad	23
	.quad	64
	.quad	.LC191
	.quad	.LC139
	.quad	0
	.quad	.LC107
	.quad	6
	.quad	64
	.quad	.LC192
	.quad	.LC139
	.quad	0
	.quad	.LC134
	.quad	33
	.quad	96
	.quad	.LC193
	.quad	.LC139
	.quad	0
	.quad	.LC122
	.quad	36
	.quad	96
	.quad	.LC194
	.quad	.LC139
	.quad	0
	.quad	.LC87
	.quad	39
	.quad	96
	.quad	.LC195
	.quad	.LC139
	.quad	0
	.quad	.LC124
	.quad	15
	.quad	64
	.quad	.LC196
	.quad	.LC139
	.quad	0
	.quad	.LC103
	.quad	72
	.quad	128
	.quad	.LC197
	.quad	.LC139
	.quad	0
	.quad	.LC41
	.quad	31
	.quad	64
	.quad	.LC198
	.quad	.LC139
	.quad	0
	.quad	.LC135
	.quad	37
	.quad	96
	.quad	.LC199
	.quad	.LC139
	.quad	0
	.quad	.LC47
	.quad	7
	.quad	64
	.quad	.LC200
	.quad	.LC139
	.quad	0
	.quad	.LC74
	.quad	15
	.quad	64
	.quad	.LC201
	.quad	.LC139
	.quad	0
	.quad	.LC35
	.quad	37
	.quad	96
	.quad	.LC202
	.quad	.LC139
	.quad	0
	.quad	.LC91
	.quad	20
	.quad	64
	.quad	.LC203
	.quad	.LC139
	.quad	0
	.quad	.LC10
	.quad	39
	.quad	96
	.quad	.LC204
	.quad	.LC139
	.quad	0
	.quad	.LC132
	.quad	13
	.quad	64
	.quad	.LC205
	.quad	.LC139
	.quad	0
	.quad	.LC76
	.quad	8
	.quad	64
	.quad	.LC206
	.quad	.LC139
	.quad	0
	.quad	.LC37
	.quad	34
	.quad	96
	.quad	.LC207
	.quad	.LC139
	.quad	0
	.quad	.LC130
	.quad	19
	.quad	64
	.quad	.LC208
	.quad	.LC139
	.quad	0
	.quad	.LC70
	.quad	8
	.quad	64
	.quad	.LC209
	.quad	.LC139
	.quad	0
	.quad	.LC117
	.quad	13
	.quad	64
	.quad	.LC210
	.quad	.LC139
	.quad	0
	.quad	.LC102
	.quad	67
	.quad	128
	.quad	.LC211
	.quad	.LC139
	.quad	0
	.quad	.LC114
	.quad	74
	.quad	128
	.quad	.LC212
	.quad	.LC139
	.quad	0
	.quad	.LC2
	.quad	62
	.quad	96
	.quad	.LC213
	.quad	.LC139
	.quad	0
	.quad	.LC28
	.quad	1
	.quad	64
	.quad	.LC214
	.quad	.LC139
	.quad	0
	.quad	.LC99
	.quad	25
	.quad	64
	.quad	.LC215
	.quad	.LC139
	.quad	0
	.quad	.LC56
	.quad	9
	.quad	64
	.quad	.LC216
	.quad	.LC139
	.quad	0
	.quad	.LC112
	.quad	31
	.quad	64
	.quad	.LC217
	.quad	.LC139
	.quad	0
	.quad	.LC49
	.quad	26
	.quad	64
	.quad	.LC218
	.quad	.LC139
	.quad	0
	.quad	.LC59
	.quad	10
	.quad	64
	.quad	.LC219
	.quad	.LC139
	.quad	0
	.quad	.LC93
	.quad	33
	.quad	96
	.quad	.LC220
	.quad	.LC139
	.quad	0
	.quad	.LC82
	.quad	5
	.quad	64
	.quad	.LC221
	.quad	.LC139
	.quad	0
	.quad	.LC25
	.quad	43
	.quad	96
	.quad	.LC222
	.quad	.LC139
	.quad	0
	.quad	.LC100
	.quad	10
	.quad	64
	.quad	.LC223
	.quad	.LC139
	.quad	0
	.quad	.LC136
	.quad	25
	.quad	64
	.quad	.LC224
	.quad	.LC139
	.quad	0
	.quad	.LC3
	.quad	65
	.quad	128
	.quad	.LC225
	.quad	.LC139
	.quad	0
	.quad	.LC128
	.quad	58
	.quad	96
	.quad	.LC226
	.quad	.LC139
	.quad	0
	.quad	.LC125
	.quad	12
	.quad	64
	.quad	.LC227
	.quad	.LC139
	.quad	0
	.quad	.LC68
	.quad	10
	.quad	64
	.quad	.LC228
	.quad	.LC139
	.quad	0
	.quad	.LC109
	.quad	12
	.quad	64
	.quad	.LC229
	.quad	.LC139
	.quad	0
	.quad	.LC73
	.quad	13
	.quad	64
	.quad	.LC230
	.quad	.LC139
	.quad	0
	.quad	.LC133
	.quad	56
	.quad	96
	.quad	.LC231
	.quad	.LC139
	.quad	0
	.quad	.LC50
	.quad	2
	.quad	64
	.quad	.LC232
	.quad	.LC139
	.quad	0
	.quad	.LC54
	.quad	4
	.quad	64
	.quad	.LC233
	.quad	.LC139
	.quad	0
	.quad	.LC113
	.quad	12
	.quad	64
	.quad	.LC234
	.quad	.LC139
	.quad	0
	.quad	.LC116
	.quad	18
	.quad	64
	.quad	.LC235
	.quad	.LC139
	.quad	0
	.quad	.LC57
	.quad	9
	.quad	64
	.quad	.LC236
	.quad	.LC139
	.quad	0
	.quad	.LC84
	.quad	3
	.quad	64
	.quad	.LC237
	.quad	.LC139
	.quad	0
	.quad	.LC71
	.quad	6
	.quad	64
	.quad	.LC238
	.quad	.LC139
	.quad	0
	.quad	.LC58
	.quad	8
	.quad	64
	.quad	.LC239
	.quad	.LC139
	.quad	0
	.quad	.LC90
	.quad	11
	.quad	64
	.quad	.LC240
	.quad	.LC139
	.quad	0
	.quad	.LC11
	.quad	104
	.quad	160
	.quad	.LC241
	.quad	.LC139
	.quad	0
	.quad	.LC111
	.quad	4
	.quad	64
	.quad	.LC242
	.quad	.LC139
	.quad	0
	.quad	.LC42
	.quad	36
	.quad	96
	.quad	.LC243
	.quad	.LC139
	.quad	0
	.quad	.LC89
	.quad	34
	.quad	96
	.quad	.LC244
	.quad	.LC139
	.quad	0
	.quad	.LC123
	.quad	30
	.quad	64
	.quad	.LC245
	.quad	.LC139
	.quad	0
	.quad	.LC104
	.quad	20
	.quad	64
	.quad	.LC246
	.quad	.LC139
	.quad	0
	.quad	.LC80
	.quad	5
	.quad	64
	.quad	.LC247
	.quad	.LC139
	.quad	0
	.quad	.LC131
	.quad	22
	.quad	64
	.quad	.LC248
	.quad	.LC139
	.quad	0
	.quad	.LC78
	.quad	8
	.quad	64
	.quad	.LC249
	.quad	.LC139
	.quad	0
	.quad	.LC85
	.quad	26
	.quad	64
	.quad	.LC250
	.quad	.LC139
	.quad	0
	.quad	.LC72
	.quad	8
	.quad	64
	.quad	.LC251
	.quad	.LC139
	.quad	0
	.quad	.LC69
	.quad	5
	.quad	64
	.quad	.LC252
	.quad	.LC139
	.quad	0
	.quad	.LC110
	.quad	2
	.quad	64
	.quad	.LC253
	.quad	.LC139
	.quad	0
	.quad	.LC94
	.quad	38
	.quad	96
	.quad	.LC254
	.quad	.LC139
	.quad	0
	.quad	.LC129
	.quad	38
	.quad	96
	.quad	.LC255
	.quad	.LC139
	.quad	0
	.quad	.LC48
	.quad	11
	.quad	64
	.quad	.LC256
	.quad	.LC139
	.quad	0
	.quad	.LC24
	.quad	33
	.quad	96
	.quad	.LC257
	.quad	.LC139
	.quad	0
	.quad	.LC19
	.quad	22
	.quad	64
	.quad	.LC258
	.quad	.LC139
	.quad	0
	.quad	.LC95
	.quad	3
	.quad	64
	.quad	.LC259
	.quad	.LC139
	.quad	0
	.quad	.LC97
	.quad	44
	.quad	96
	.quad	.LC260
	.quad	.LC139
	.quad	0
	.quad	.LC65
	.quad	7
	.quad	64
	.quad	.LC261
	.quad	.LC139
	.quad	0
	.quad	.LC44
	.quad	8
	.quad	64
	.quad	.LC262
	.quad	.LC139
	.quad	0
	.quad	.LC86
	.quad	25
	.quad	64
	.quad	.LC263
	.quad	.LC139
	.quad	0
	.quad	.LC83
	.quad	5
	.quad	64
	.quad	.LC264
	.quad	.LC139
	.quad	0
	.quad	.LC27
	.quad	35
	.quad	96
	.quad	.LC265
	.quad	.LC139
	.quad	0
	.quad	.LC92
	.quad	16
	.quad	64
	.quad	.LC266
	.quad	.LC139
	.quad	0
	.quad	.LC1
	.quad	70
	.quad	128
	.quad	.LC267
	.quad	.LC139
	.quad	0
	.quad	.LC66
	.quad	16
	.quad	64
	.quad	.LC268
	.quad	.LC139
	.quad	0
	.quad	.LC105
	.quad	15
	.quad	64
	.quad	.LC269
	.quad	.LC139
	.quad	0
	.quad	.LC62
	.quad	5
	.quad	64
	.quad	.LC270
	.quad	.LC139
	.quad	0
	.quad	.LC79
	.quad	32
	.quad	64
	.quad	.LC271
	.quad	.LC139
	.quad	0
	.quad	.LC108
	.quad	2
	.quad	64
	.quad	.LC272
	.quad	.LC139
	.quad	0
	.quad	.LC119
	.quad	15
	.quad	64
	.quad	.LC273
	.quad	.LC139
	.quad	0
	.quad	.LC88
	.quad	29
	.quad	64
	.quad	.LC274
	.quad	.LC139
	.quad	0
	.quad	.LC64
	.quad	9
	.quad	64
	.quad	.LC275
	.quad	.LC139
	.quad	0
	.section	.text.unlikely
.LCOLDB276:
	.section	.text.exit,"ax",@progbits
.LHOTB276:
	.p2align 4,,15
	.type	_GLOBAL__sub_D_00099_0_terminate, @function
_GLOBAL__sub_D_00099_0_terminate:
.LFB81:
	.loc 1 2189 0
	.cfi_startproc
	.loc 1 2189 0
	movl	$148, %esi
	movl	$.LASAN0, %edi
	jmp	__asan_unregister_globals
.LVL1253:
	.cfi_endproc
.LFE81:
	.size	_GLOBAL__sub_D_00099_0_terminate, .-_GLOBAL__sub_D_00099_0_terminate
	.section	.text.unlikely
.LCOLDE276:
	.section	.text.exit
.LHOTE276:
	.section	.dtors.65436,"aw",@progbits
	.align 8
	.quad	_GLOBAL__sub_D_00099_0_terminate
	.section	.text.unlikely
.LCOLDB277:
	.section	.text.startup
.LHOTB277:
	.p2align 4,,15
	.type	_GLOBAL__sub_I_00099_1_terminate, @function
_GLOBAL__sub_I_00099_1_terminate:
.LFB82:
	.loc 1 2189 0
	.cfi_startproc
	subq	$8, %rsp
	.cfi_def_cfa_offset 16
	.loc 1 2189 0
	call	__asan_init_v3
.LVL1254:
	movl	$148, %esi
	movl	$.LASAN0, %edi
	addq	$8, %rsp
	.cfi_def_cfa_offset 8
	jmp	__asan_register_globals
.LVL1255:
	.cfi_endproc
.LFE82:
	.size	_GLOBAL__sub_I_00099_1_terminate, .-_GLOBAL__sub_I_00099_1_terminate
	.section	.text.unlikely
.LCOLDE277:
	.section	.text.startup
.LHOTE277:
	.section	.ctors.65436,"aw",@progbits
	.align 8
	.quad	_GLOBAL__sub_I_00099_1_terminate
	.section	.rodata.cst4,"aM",@progbits,4
	.align 4
.LC9:
	.long	1065353216
	.text
.Letext0:
	.section	.text.unlikely
.Letext_cold0:
	.file 3 "/usr/include/bits/types.h"
	.file 4 "/usr/include/sys/types.h"
	.file 5 "/usr/include/time.h"
	.file 6 "/usr/local/cs/gcc-4.9.2/lib/gcc/x86_64-unknown-linux-gnu/4.9.2/include/stddef.h"
	.file 7 "/usr/include/bits/time.h"
	.file 8 "/usr/include/bits/stat.h"
	.file 9 "/usr/include/signal.h"
	.file 10 "/usr/include/bits/uio.h"
	.file 11 "/usr/include/pwd.h"
	.file 12 "/usr/include/stdio.h"
	.file 13 "/usr/include/libio.h"
	.file 14 "/usr/include/unistd.h"
	.file 15 "/usr/include/sys/time.h"
	.file 16 "/usr/include/bits/sockaddr.h"
	.file 17 "/usr/include/bits/socket.h"
	.file 18 "/usr/include/stdint.h"
	.file 19 "/usr/include/netinet/in.h"
	.file 20 "/usr/include/netdb.h"
	.file 21 "./libhttpd.h"
	.file 22 "./timers.h"
	.file 23 "/usr/include/bits/string2.h"
	.file 24 "<built-in>"
	.file 25 "./fdwatch.h"
	.file 26 "/usr/include/sys/syslog.h"
	.file 27 "./mmc.h"
	.file 28 "/usr/include/bits/errno.h"
	.file 29 "/usr/include/sys/wait.h"
	.file 30 "/usr/include/sys/socket.h"
	.file 31 "/usr/include/string.h"
	.file 32 "/usr/include/sys/uio.h"
	.file 33 "./match.h"
	.file 34 "/usr/include/sys/stat.h"
	.file 35 "/usr/include/fcntl.h"
	.file 36 "/usr/include/grp.h"
	.section	.note.GNU-stack,"",@progbits
